
os.elf:     file format elf32-i386
os.elf
architecture: i386, flags 0x00000112:
EXEC_P, HAS_SYMS, D_PAGED
start address 0x00007c00

Program Header:
    LOAD off    0x00000000 vaddr 0x00007000 paddr 0x00007000 align 2**12
         filesz 0x00010e00 memsz 0x00010e00 flags r-x

Sections:
Idx Name          Size      VMA       LMA       File off  Algn
  0 .text         00010200  00007c00  00007c00  00000c00  2**0
                  CONTENTS, ALLOC, LOAD, READONLY, CODE
  1 .comment      00000011  00000000  00000000  00010e00  2**0
                  CONTENTS, READONLY
  2 .debug_aranges 00000020  00000000  00000000  00010e18  2**3
                  CONTENTS, READONLY, DEBUGGING
  3 .debug_info   0000004f  00000000  00000000  00010e38  2**0
                  CONTENTS, READONLY, DEBUGGING
  4 .debug_abbrev 00000014  00000000  00000000  00010e87  2**0
                  CONTENTS, READONLY, DEBUGGING
  5 .debug_line   0000004d  00000000  00000000  00010e9b  2**0
                  CONTENTS, READONLY, DEBUGGING
  6 .debug_str    0000007b  00000000  00000000  00010ee8  2**0
                  CONTENTS, READONLY, DEBUGGING
SYMBOL TABLE:
00007c00 l    d  .text	00000000 .text
00000000 l    d  .comment	00000000 .comment
00000000 l    d  .debug_aranges	00000000 .debug_aranges
00000000 l    d  .debug_info	00000000 .debug_info
00000000 l    d  .debug_abbrev	00000000 .debug_abbrev
00000000 l    d  .debug_line	00000000 .debug_line
00000000 l    d  .debug_str	00000000 .debug_str
00000000 l    df *ABS*	00000000 start.o
00007c13 l       .text	00000000 read_self_all
00007e00 l       .text	00000000 _start_32
00000000 l    df *ABS*	00000000 os.c
00007c00 g       .text	00000000 _start
00018e00 g       .text	00000000 __bss_start
00018e00 g       .text	00000000 _edata
00018e00 g       .text	00000000 _end



Disassembly of section .text:

00007c00 <_start>:

	// 以下是代码区
 	.text
_start:

	mov $0, %ax
    7c00:	b8 00 00 8e d8       	mov    $0xd88e0000,%eax
	mov %ax, %ds
	mov %ax, %es
    7c05:	8e c0                	mov    %eax,%es
	mov %ax, %ss
    7c07:	8e d0                	mov    %eax,%ss
	mov %ax, %gs
    7c09:	8e e8                	mov    %eax,%gs
	mov %ax, %fs
    7c0b:	8e e0                	mov    %eax,%fs
	mov $_start, %esp
    7c0d:	66 bc 00 7c          	mov    $0x7c00,%sp
	...

00007c13 <read_self_all>:

read_self_all:
	//首先设置读取到的位置
	mov $_start_32, %bx
    7c13:	bb 00 7e b9 02       	mov    $0x2b97e00,%ebx
	//在这里设置开始的扇区数
	mov $0x2, %cx
    7c18:	00 b8 40 02 ba 80    	add    %bh,-0x7f45fdc0(%eax)
	//在这里设置的是读取的数量,以及是使用的读取模式
	mov $0x240, %ax
	//在这里设置读取的是C盘
	mov $0x80, %dx
    7c1e:	00 cd                	add    %cl,%ch
	//调用中断
	int $0x13
    7c20:	13 72 f0             	adc    -0x10(%edx),%esi
	//读取失败再次读取
	jc read_self_all


	jmp .
    7c23:	eb fe                	jmp    7c23 <read_self_all+0x10>
	...
    7dfd:	00 55 aa             	add    %dl,-0x56(%ebp)

00007e00 <_start_32>:
    7e00:	25 25 25 25 25       	and    $0x25252525,%eax
    7e05:	25 25 25 25 25       	and    $0x25252525,%eax
    7e0a:	25 25 25 25 25       	and    $0x25252525,%eax
    7e0f:	25 25 25 25 25       	and    $0x25252525,%eax
    7e14:	25 25 25 25 25       	and    $0x25252525,%eax
    7e19:	25 25 25 25 25       	and    $0x25252525,%eax
    7e1e:	25 25 25 25 25       	and    $0x25252525,%eax
    7e23:	25 25 25 25 25       	and    $0x25252525,%eax
    7e28:	25 25 25 25 25       	and    $0x25252525,%eax
    7e2d:	25 25 25 25 25       	and    $0x25252525,%eax
    7e32:	25 25 25 25 25       	and    $0x25252525,%eax
    7e37:	25 25 25 25 25       	and    $0x25252525,%eax
    7e3c:	25 25 25 25 25       	and    $0x25252525,%eax
    7e41:	25 25 25 25 25       	and    $0x25252525,%eax
    7e46:	25 25 25 25 25       	and    $0x25252525,%eax
    7e4b:	25 25 25 25 25       	and    $0x25252525,%eax
    7e50:	25 25 25 25 25       	and    $0x25252525,%eax
    7e55:	25 25 25 25 25       	and    $0x25252525,%eax
    7e5a:	25 25 25 25 25       	and    $0x25252525,%eax
    7e5f:	25 25 25 25 25       	and    $0x25252525,%eax
    7e64:	25 25 25 25 25       	and    $0x25252525,%eax
    7e69:	25 25 25 25 25       	and    $0x25252525,%eax
    7e6e:	25 25 25 25 25       	and    $0x25252525,%eax
    7e73:	25 25 25 25 25       	and    $0x25252525,%eax
    7e78:	25 25 25 25 25       	and    $0x25252525,%eax
    7e7d:	25 25 25 25 25       	and    $0x25252525,%eax
    7e82:	25 25 25 25 25       	and    $0x25252525,%eax
    7e87:	25 25 25 25 25       	and    $0x25252525,%eax
    7e8c:	25 25 25 25 25       	and    $0x25252525,%eax
    7e91:	25 25 25 25 25       	and    $0x25252525,%eax
    7e96:	25 25 25 25 25       	and    $0x25252525,%eax
    7e9b:	25 25 25 25 25       	and    $0x25252525,%eax
    7ea0:	25 25 25 25 25       	and    $0x25252525,%eax
    7ea5:	25 25 25 25 25       	and    $0x25252525,%eax
    7eaa:	25 25 25 25 25       	and    $0x25252525,%eax
    7eaf:	25 25 25 25 25       	and    $0x25252525,%eax
    7eb4:	25 25 25 25 25       	and    $0x25252525,%eax
    7eb9:	25 25 25 25 25       	and    $0x25252525,%eax
    7ebe:	25 25 25 25 25       	and    $0x25252525,%eax
    7ec3:	25 25 25 25 25       	and    $0x25252525,%eax
    7ec8:	25 25 25 25 25       	and    $0x25252525,%eax
    7ecd:	25 25 25 25 25       	and    $0x25252525,%eax
    7ed2:	25 25 25 25 25       	and    $0x25252525,%eax
    7ed7:	25 25 25 25 25       	and    $0x25252525,%eax
    7edc:	25 25 25 25 25       	and    $0x25252525,%eax
    7ee1:	25 25 25 25 25       	and    $0x25252525,%eax
    7ee6:	25 25 25 25 25       	and    $0x25252525,%eax
    7eeb:	25 25 25 25 25       	and    $0x25252525,%eax
    7ef0:	25 25 25 25 25       	and    $0x25252525,%eax
    7ef5:	25 25 25 25 25       	and    $0x25252525,%eax
    7efa:	25 25 25 25 25       	and    $0x25252525,%eax
    7eff:	25 25 25 25 25       	and    $0x25252525,%eax
    7f04:	25 25 25 25 25       	and    $0x25252525,%eax
    7f09:	25 25 25 25 25       	and    $0x25252525,%eax
    7f0e:	25 25 25 25 25       	and    $0x25252525,%eax
    7f13:	25 25 25 25 25       	and    $0x25252525,%eax
    7f18:	25 25 25 25 25       	and    $0x25252525,%eax
    7f1d:	25 25 25 25 25       	and    $0x25252525,%eax
    7f22:	25 25 25 25 25       	and    $0x25252525,%eax
    7f27:	25 25 25 25 25       	and    $0x25252525,%eax
    7f2c:	25 25 25 25 25       	and    $0x25252525,%eax
    7f31:	25 25 25 25 25       	and    $0x25252525,%eax
    7f36:	25 25 25 25 25       	and    $0x25252525,%eax
    7f3b:	25 25 25 25 25       	and    $0x25252525,%eax
    7f40:	25 25 25 25 25       	and    $0x25252525,%eax
    7f45:	25 25 25 25 25       	and    $0x25252525,%eax
    7f4a:	25 25 25 25 25       	and    $0x25252525,%eax
    7f4f:	25 25 25 25 25       	and    $0x25252525,%eax
    7f54:	25 25 25 25 25       	and    $0x25252525,%eax
    7f59:	25 25 25 25 25       	and    $0x25252525,%eax
    7f5e:	25 25 25 25 25       	and    $0x25252525,%eax
    7f63:	25 25 25 25 25       	and    $0x25252525,%eax
    7f68:	25 25 25 25 25       	and    $0x25252525,%eax
    7f6d:	25 25 25 25 25       	and    $0x25252525,%eax
    7f72:	25 25 25 25 25       	and    $0x25252525,%eax
    7f77:	25 25 25 25 25       	and    $0x25252525,%eax
    7f7c:	25 25 25 25 25       	and    $0x25252525,%eax
    7f81:	25 25 25 25 25       	and    $0x25252525,%eax
    7f86:	25 25 25 25 25       	and    $0x25252525,%eax
    7f8b:	25 25 25 25 25       	and    $0x25252525,%eax
    7f90:	25 25 25 25 25       	and    $0x25252525,%eax
    7f95:	25 25 25 25 25       	and    $0x25252525,%eax
    7f9a:	25 25 25 25 25       	and    $0x25252525,%eax
    7f9f:	25 25 25 25 25       	and    $0x25252525,%eax
    7fa4:	25 25 25 25 25       	and    $0x25252525,%eax
    7fa9:	25 25 25 25 25       	and    $0x25252525,%eax
    7fae:	25 25 25 25 25       	and    $0x25252525,%eax
    7fb3:	25 25 25 25 25       	and    $0x25252525,%eax
    7fb8:	25 25 25 25 25       	and    $0x25252525,%eax
    7fbd:	25 25 25 25 25       	and    $0x25252525,%eax
    7fc2:	25 25 25 25 25       	and    $0x25252525,%eax
    7fc7:	25 25 25 25 25       	and    $0x25252525,%eax
    7fcc:	25 25 25 25 25       	and    $0x25252525,%eax
    7fd1:	25 25 25 25 25       	and    $0x25252525,%eax
    7fd6:	25 25 25 25 25       	and    $0x25252525,%eax
    7fdb:	25 25 25 25 25       	and    $0x25252525,%eax
    7fe0:	25 25 25 25 25       	and    $0x25252525,%eax
    7fe5:	25 25 25 25 25       	and    $0x25252525,%eax
    7fea:	25 25 25 25 25       	and    $0x25252525,%eax
    7fef:	25 25 25 25 25       	and    $0x25252525,%eax
    7ff4:	25 25 25 25 25       	and    $0x25252525,%eax
    7ff9:	25 25 25 25 25       	and    $0x25252525,%eax
    7ffe:	25 25 25 25 25       	and    $0x25252525,%eax
    8003:	25 25 25 25 25       	and    $0x25252525,%eax
    8008:	25 25 25 25 25       	and    $0x25252525,%eax
    800d:	25 25 25 25 25       	and    $0x25252525,%eax
    8012:	25 25 25 25 25       	and    $0x25252525,%eax
    8017:	25 25 25 25 25       	and    $0x25252525,%eax
    801c:	25 25 25 25 25       	and    $0x25252525,%eax
    8021:	25 25 25 25 25       	and    $0x25252525,%eax
    8026:	25 25 25 25 25       	and    $0x25252525,%eax
    802b:	25 25 25 25 25       	and    $0x25252525,%eax
    8030:	25 25 25 25 25       	and    $0x25252525,%eax
    8035:	25 25 25 25 25       	and    $0x25252525,%eax
    803a:	25 25 25 25 25       	and    $0x25252525,%eax
    803f:	25 25 25 25 25       	and    $0x25252525,%eax
    8044:	25 25 25 25 25       	and    $0x25252525,%eax
    8049:	25 25 25 25 25       	and    $0x25252525,%eax
    804e:	25 25 25 25 25       	and    $0x25252525,%eax
    8053:	25 25 25 25 25       	and    $0x25252525,%eax
    8058:	25 25 25 25 25       	and    $0x25252525,%eax
    805d:	25 25 25 25 25       	and    $0x25252525,%eax
    8062:	25 25 25 25 25       	and    $0x25252525,%eax
    8067:	25 25 25 25 25       	and    $0x25252525,%eax
    806c:	25 25 25 25 25       	and    $0x25252525,%eax
    8071:	25 25 25 25 25       	and    $0x25252525,%eax
    8076:	25 25 25 25 25       	and    $0x25252525,%eax
    807b:	25 25 25 25 25       	and    $0x25252525,%eax
    8080:	25 25 25 25 25       	and    $0x25252525,%eax
    8085:	25 25 25 25 25       	and    $0x25252525,%eax
    808a:	25 25 25 25 25       	and    $0x25252525,%eax
    808f:	25 25 25 25 25       	and    $0x25252525,%eax
    8094:	25 25 25 25 25       	and    $0x25252525,%eax
    8099:	25 25 25 25 25       	and    $0x25252525,%eax
    809e:	25 25 25 25 25       	and    $0x25252525,%eax
    80a3:	25 25 25 25 25       	and    $0x25252525,%eax
    80a8:	25 25 25 25 25       	and    $0x25252525,%eax
    80ad:	25 25 25 25 25       	and    $0x25252525,%eax
    80b2:	25 25 25 25 25       	and    $0x25252525,%eax
    80b7:	25 25 25 25 25       	and    $0x25252525,%eax
    80bc:	25 25 25 25 25       	and    $0x25252525,%eax
    80c1:	25 25 25 25 25       	and    $0x25252525,%eax
    80c6:	25 25 25 25 25       	and    $0x25252525,%eax
    80cb:	25 25 25 25 25       	and    $0x25252525,%eax
    80d0:	25 25 25 25 25       	and    $0x25252525,%eax
    80d5:	25 25 25 25 25       	and    $0x25252525,%eax
    80da:	25 25 25 25 25       	and    $0x25252525,%eax
    80df:	25 25 25 25 25       	and    $0x25252525,%eax
    80e4:	25 25 25 25 25       	and    $0x25252525,%eax
    80e9:	25 25 25 25 25       	and    $0x25252525,%eax
    80ee:	25 25 25 25 25       	and    $0x25252525,%eax
    80f3:	25 25 25 25 25       	and    $0x25252525,%eax
    80f8:	25 25 25 25 25       	and    $0x25252525,%eax
    80fd:	25 25 25 25 25       	and    $0x25252525,%eax
    8102:	25 25 25 25 25       	and    $0x25252525,%eax
    8107:	25 25 25 25 25       	and    $0x25252525,%eax
    810c:	25 25 25 25 25       	and    $0x25252525,%eax
    8111:	25 25 25 25 25       	and    $0x25252525,%eax
    8116:	25 25 25 25 25       	and    $0x25252525,%eax
    811b:	25 25 25 25 25       	and    $0x25252525,%eax
    8120:	25 25 25 25 25       	and    $0x25252525,%eax
    8125:	25 25 25 25 25       	and    $0x25252525,%eax
    812a:	25 25 25 25 25       	and    $0x25252525,%eax
    812f:	25 25 25 25 25       	and    $0x25252525,%eax
    8134:	25 25 25 25 25       	and    $0x25252525,%eax
    8139:	25 25 25 25 25       	and    $0x25252525,%eax
    813e:	25 25 25 25 25       	and    $0x25252525,%eax
    8143:	25 25 25 25 25       	and    $0x25252525,%eax
    8148:	25 25 25 25 25       	and    $0x25252525,%eax
    814d:	25 25 25 25 25       	and    $0x25252525,%eax
    8152:	25 25 25 25 25       	and    $0x25252525,%eax
    8157:	25 25 25 25 25       	and    $0x25252525,%eax
    815c:	25 25 25 25 25       	and    $0x25252525,%eax
    8161:	25 25 25 25 25       	and    $0x25252525,%eax
    8166:	25 25 25 25 25       	and    $0x25252525,%eax
    816b:	25 25 25 25 25       	and    $0x25252525,%eax
    8170:	25 25 25 25 25       	and    $0x25252525,%eax
    8175:	25 25 25 25 25       	and    $0x25252525,%eax
    817a:	25 25 25 25 25       	and    $0x25252525,%eax
    817f:	25 25 25 25 25       	and    $0x25252525,%eax
    8184:	25 25 25 25 25       	and    $0x25252525,%eax
    8189:	25 25 25 25 25       	and    $0x25252525,%eax
    818e:	25 25 25 25 25       	and    $0x25252525,%eax
    8193:	25 25 25 25 25       	and    $0x25252525,%eax
    8198:	25 25 25 25 25       	and    $0x25252525,%eax
    819d:	25 25 25 25 25       	and    $0x25252525,%eax
    81a2:	25 25 25 25 25       	and    $0x25252525,%eax
    81a7:	25 25 25 25 25       	and    $0x25252525,%eax
    81ac:	25 25 25 25 25       	and    $0x25252525,%eax
    81b1:	25 25 25 25 25       	and    $0x25252525,%eax
    81b6:	25 25 25 25 25       	and    $0x25252525,%eax
    81bb:	25 25 25 25 25       	and    $0x25252525,%eax
    81c0:	25 25 25 25 25       	and    $0x25252525,%eax
    81c5:	25 25 25 25 25       	and    $0x25252525,%eax
    81ca:	25 25 25 25 25       	and    $0x25252525,%eax
    81cf:	25 25 25 25 25       	and    $0x25252525,%eax
    81d4:	25 25 25 25 25       	and    $0x25252525,%eax
    81d9:	25 25 25 25 25       	and    $0x25252525,%eax
    81de:	25 25 25 25 25       	and    $0x25252525,%eax
    81e3:	25 25 25 25 25       	and    $0x25252525,%eax
    81e8:	25 25 25 25 25       	and    $0x25252525,%eax
    81ed:	25 25 25 25 25       	and    $0x25252525,%eax
    81f2:	25 25 25 25 25       	and    $0x25252525,%eax
    81f7:	25 25 25 25 25       	and    $0x25252525,%eax
    81fc:	25 25 25 25 25       	and    $0x25252525,%eax
    8201:	25 25 25 25 25       	and    $0x25252525,%eax
    8206:	25 25 25 25 25       	and    $0x25252525,%eax
    820b:	25 25 25 25 25       	and    $0x25252525,%eax
    8210:	25 25 25 25 25       	and    $0x25252525,%eax
    8215:	25 25 25 25 25       	and    $0x25252525,%eax
    821a:	25 25 25 25 25       	and    $0x25252525,%eax
    821f:	25 25 25 25 25       	and    $0x25252525,%eax
    8224:	25 25 25 25 25       	and    $0x25252525,%eax
    8229:	25 25 25 25 25       	and    $0x25252525,%eax
    822e:	25 25 25 25 25       	and    $0x25252525,%eax
    8233:	25 25 25 25 25       	and    $0x25252525,%eax
    8238:	25 25 25 25 25       	and    $0x25252525,%eax
    823d:	25 25 25 25 25       	and    $0x25252525,%eax
    8242:	25 25 25 25 25       	and    $0x25252525,%eax
    8247:	25 25 25 25 25       	and    $0x25252525,%eax
    824c:	25 25 25 25 25       	and    $0x25252525,%eax
    8251:	25 25 25 25 25       	and    $0x25252525,%eax
    8256:	25 25 25 25 25       	and    $0x25252525,%eax
    825b:	25 25 25 25 25       	and    $0x25252525,%eax
    8260:	25 25 25 25 25       	and    $0x25252525,%eax
    8265:	25 25 25 25 25       	and    $0x25252525,%eax
    826a:	25 25 25 25 25       	and    $0x25252525,%eax
    826f:	25 25 25 25 25       	and    $0x25252525,%eax
    8274:	25 25 25 25 25       	and    $0x25252525,%eax
    8279:	25 25 25 25 25       	and    $0x25252525,%eax
    827e:	25 25 25 25 25       	and    $0x25252525,%eax
    8283:	25 25 25 25 25       	and    $0x25252525,%eax
    8288:	25 25 25 25 25       	and    $0x25252525,%eax
    828d:	25 25 25 25 25       	and    $0x25252525,%eax
    8292:	25 25 25 25 25       	and    $0x25252525,%eax
    8297:	25 25 25 25 25       	and    $0x25252525,%eax
    829c:	25 25 25 25 25       	and    $0x25252525,%eax
    82a1:	25 25 25 25 25       	and    $0x25252525,%eax
    82a6:	25 25 25 25 25       	and    $0x25252525,%eax
    82ab:	25 25 25 25 25       	and    $0x25252525,%eax
    82b0:	25 25 25 25 25       	and    $0x25252525,%eax
    82b5:	25 25 25 25 25       	and    $0x25252525,%eax
    82ba:	25 25 25 25 25       	and    $0x25252525,%eax
    82bf:	25 25 25 25 25       	and    $0x25252525,%eax
    82c4:	25 25 25 25 25       	and    $0x25252525,%eax
    82c9:	25 25 25 25 25       	and    $0x25252525,%eax
    82ce:	25 25 25 25 25       	and    $0x25252525,%eax
    82d3:	25 25 25 25 25       	and    $0x25252525,%eax
    82d8:	25 25 25 25 25       	and    $0x25252525,%eax
    82dd:	25 25 25 25 25       	and    $0x25252525,%eax
    82e2:	25 25 25 25 25       	and    $0x25252525,%eax
    82e7:	25 25 25 25 25       	and    $0x25252525,%eax
    82ec:	25 25 25 25 25       	and    $0x25252525,%eax
    82f1:	25 25 25 25 25       	and    $0x25252525,%eax
    82f6:	25 25 25 25 25       	and    $0x25252525,%eax
    82fb:	25 25 25 25 25       	and    $0x25252525,%eax
    8300:	25 25 25 25 25       	and    $0x25252525,%eax
    8305:	25 25 25 25 25       	and    $0x25252525,%eax
    830a:	25 25 25 25 25       	and    $0x25252525,%eax
    830f:	25 25 25 25 25       	and    $0x25252525,%eax
    8314:	25 25 25 25 25       	and    $0x25252525,%eax
    8319:	25 25 25 25 25       	and    $0x25252525,%eax
    831e:	25 25 25 25 25       	and    $0x25252525,%eax
    8323:	25 25 25 25 25       	and    $0x25252525,%eax
    8328:	25 25 25 25 25       	and    $0x25252525,%eax
    832d:	25 25 25 25 25       	and    $0x25252525,%eax
    8332:	25 25 25 25 25       	and    $0x25252525,%eax
    8337:	25 25 25 25 25       	and    $0x25252525,%eax
    833c:	25 25 25 25 25       	and    $0x25252525,%eax
    8341:	25 25 25 25 25       	and    $0x25252525,%eax
    8346:	25 25 25 25 25       	and    $0x25252525,%eax
    834b:	25 25 25 25 25       	and    $0x25252525,%eax
    8350:	25 25 25 25 25       	and    $0x25252525,%eax
    8355:	25 25 25 25 25       	and    $0x25252525,%eax
    835a:	25 25 25 25 25       	and    $0x25252525,%eax
    835f:	25 25 25 25 25       	and    $0x25252525,%eax
    8364:	25 25 25 25 25       	and    $0x25252525,%eax
    8369:	25 25 25 25 25       	and    $0x25252525,%eax
    836e:	25 25 25 25 25       	and    $0x25252525,%eax
    8373:	25 25 25 25 25       	and    $0x25252525,%eax
    8378:	25 25 25 25 25       	and    $0x25252525,%eax
    837d:	25 25 25 25 25       	and    $0x25252525,%eax
    8382:	25 25 25 25 25       	and    $0x25252525,%eax
    8387:	25 25 25 25 25       	and    $0x25252525,%eax
    838c:	25 25 25 25 25       	and    $0x25252525,%eax
    8391:	25 25 25 25 25       	and    $0x25252525,%eax
    8396:	25 25 25 25 25       	and    $0x25252525,%eax
    839b:	25 25 25 25 25       	and    $0x25252525,%eax
    83a0:	25 25 25 25 25       	and    $0x25252525,%eax
    83a5:	25 25 25 25 25       	and    $0x25252525,%eax
    83aa:	25 25 25 25 25       	and    $0x25252525,%eax
    83af:	25 25 25 25 25       	and    $0x25252525,%eax
    83b4:	25 25 25 25 25       	and    $0x25252525,%eax
    83b9:	25 25 25 25 25       	and    $0x25252525,%eax
    83be:	25 25 25 25 25       	and    $0x25252525,%eax
    83c3:	25 25 25 25 25       	and    $0x25252525,%eax
    83c8:	25 25 25 25 25       	and    $0x25252525,%eax
    83cd:	25 25 25 25 25       	and    $0x25252525,%eax
    83d2:	25 25 25 25 25       	and    $0x25252525,%eax
    83d7:	25 25 25 25 25       	and    $0x25252525,%eax
    83dc:	25 25 25 25 25       	and    $0x25252525,%eax
    83e1:	25 25 25 25 25       	and    $0x25252525,%eax
    83e6:	25 25 25 25 25       	and    $0x25252525,%eax
    83eb:	25 25 25 25 25       	and    $0x25252525,%eax
    83f0:	25 25 25 25 25       	and    $0x25252525,%eax
    83f5:	25 25 25 25 25       	and    $0x25252525,%eax
    83fa:	25 25 25 25 25       	and    $0x25252525,%eax
    83ff:	25 25 25 25 25       	and    $0x25252525,%eax
    8404:	25 25 25 25 25       	and    $0x25252525,%eax
    8409:	25 25 25 25 25       	and    $0x25252525,%eax
    840e:	25 25 25 25 25       	and    $0x25252525,%eax
    8413:	25 25 25 25 25       	and    $0x25252525,%eax
    8418:	25 25 25 25 25       	and    $0x25252525,%eax
    841d:	25 25 25 25 25       	and    $0x25252525,%eax
    8422:	25 25 25 25 25       	and    $0x25252525,%eax
    8427:	25 25 25 25 25       	and    $0x25252525,%eax
    842c:	25 25 25 25 25       	and    $0x25252525,%eax
    8431:	25 25 25 25 25       	and    $0x25252525,%eax
    8436:	25 25 25 25 25       	and    $0x25252525,%eax
    843b:	25 25 25 25 25       	and    $0x25252525,%eax
    8440:	25 25 25 25 25       	and    $0x25252525,%eax
    8445:	25 25 25 25 25       	and    $0x25252525,%eax
    844a:	25 25 25 25 25       	and    $0x25252525,%eax
    844f:	25 25 25 25 25       	and    $0x25252525,%eax
    8454:	25 25 25 25 25       	and    $0x25252525,%eax
    8459:	25 25 25 25 25       	and    $0x25252525,%eax
    845e:	25 25 25 25 25       	and    $0x25252525,%eax
    8463:	25 25 25 25 25       	and    $0x25252525,%eax
    8468:	25 25 25 25 25       	and    $0x25252525,%eax
    846d:	25 25 25 25 25       	and    $0x25252525,%eax
    8472:	25 25 25 25 25       	and    $0x25252525,%eax
    8477:	25 25 25 25 25       	and    $0x25252525,%eax
    847c:	25 25 25 25 25       	and    $0x25252525,%eax
    8481:	25 25 25 25 25       	and    $0x25252525,%eax
    8486:	25 25 25 25 25       	and    $0x25252525,%eax
    848b:	25 25 25 25 25       	and    $0x25252525,%eax
    8490:	25 25 25 25 25       	and    $0x25252525,%eax
    8495:	25 25 25 25 25       	and    $0x25252525,%eax
    849a:	25 25 25 25 25       	and    $0x25252525,%eax
    849f:	25 25 25 25 25       	and    $0x25252525,%eax
    84a4:	25 25 25 25 25       	and    $0x25252525,%eax
    84a9:	25 25 25 25 25       	and    $0x25252525,%eax
    84ae:	25 25 25 25 25       	and    $0x25252525,%eax
    84b3:	25 25 25 25 25       	and    $0x25252525,%eax
    84b8:	25 25 25 25 25       	and    $0x25252525,%eax
    84bd:	25 25 25 25 25       	and    $0x25252525,%eax
    84c2:	25 25 25 25 25       	and    $0x25252525,%eax
    84c7:	25 25 25 25 25       	and    $0x25252525,%eax
    84cc:	25 25 25 25 25       	and    $0x25252525,%eax
    84d1:	25 25 25 25 25       	and    $0x25252525,%eax
    84d6:	25 25 25 25 25       	and    $0x25252525,%eax
    84db:	25 25 25 25 25       	and    $0x25252525,%eax
    84e0:	25 25 25 25 25       	and    $0x25252525,%eax
    84e5:	25 25 25 25 25       	and    $0x25252525,%eax
    84ea:	25 25 25 25 25       	and    $0x25252525,%eax
    84ef:	25 25 25 25 25       	and    $0x25252525,%eax
    84f4:	25 25 25 25 25       	and    $0x25252525,%eax
    84f9:	25 25 25 25 25       	and    $0x25252525,%eax
    84fe:	25 25 25 25 25       	and    $0x25252525,%eax
    8503:	25 25 25 25 25       	and    $0x25252525,%eax
    8508:	25 25 25 25 25       	and    $0x25252525,%eax
    850d:	25 25 25 25 25       	and    $0x25252525,%eax
    8512:	25 25 25 25 25       	and    $0x25252525,%eax
    8517:	25 25 25 25 25       	and    $0x25252525,%eax
    851c:	25 25 25 25 25       	and    $0x25252525,%eax
    8521:	25 25 25 25 25       	and    $0x25252525,%eax
    8526:	25 25 25 25 25       	and    $0x25252525,%eax
    852b:	25 25 25 25 25       	and    $0x25252525,%eax
    8530:	25 25 25 25 25       	and    $0x25252525,%eax
    8535:	25 25 25 25 25       	and    $0x25252525,%eax
    853a:	25 25 25 25 25       	and    $0x25252525,%eax
    853f:	25 25 25 25 25       	and    $0x25252525,%eax
    8544:	25 25 25 25 25       	and    $0x25252525,%eax
    8549:	25 25 25 25 25       	and    $0x25252525,%eax
    854e:	25 25 25 25 25       	and    $0x25252525,%eax
    8553:	25 25 25 25 25       	and    $0x25252525,%eax
    8558:	25 25 25 25 25       	and    $0x25252525,%eax
    855d:	25 25 25 25 25       	and    $0x25252525,%eax
    8562:	25 25 25 25 25       	and    $0x25252525,%eax
    8567:	25 25 25 25 25       	and    $0x25252525,%eax
    856c:	25 25 25 25 25       	and    $0x25252525,%eax
    8571:	25 25 25 25 25       	and    $0x25252525,%eax
    8576:	25 25 25 25 25       	and    $0x25252525,%eax
    857b:	25 25 25 25 25       	and    $0x25252525,%eax
    8580:	25 25 25 25 25       	and    $0x25252525,%eax
    8585:	25 25 25 25 25       	and    $0x25252525,%eax
    858a:	25 25 25 25 25       	and    $0x25252525,%eax
    858f:	25 25 25 25 25       	and    $0x25252525,%eax
    8594:	25 25 25 25 25       	and    $0x25252525,%eax
    8599:	25 25 25 25 25       	and    $0x25252525,%eax
    859e:	25 25 25 25 25       	and    $0x25252525,%eax
    85a3:	25 25 25 25 25       	and    $0x25252525,%eax
    85a8:	25 25 25 25 25       	and    $0x25252525,%eax
    85ad:	25 25 25 25 25       	and    $0x25252525,%eax
    85b2:	25 25 25 25 25       	and    $0x25252525,%eax
    85b7:	25 25 25 25 25       	and    $0x25252525,%eax
    85bc:	25 25 25 25 25       	and    $0x25252525,%eax
    85c1:	25 25 25 25 25       	and    $0x25252525,%eax
    85c6:	25 25 25 25 25       	and    $0x25252525,%eax
    85cb:	25 25 25 25 25       	and    $0x25252525,%eax
    85d0:	25 25 25 25 25       	and    $0x25252525,%eax
    85d5:	25 25 25 25 25       	and    $0x25252525,%eax
    85da:	25 25 25 25 25       	and    $0x25252525,%eax
    85df:	25 25 25 25 25       	and    $0x25252525,%eax
    85e4:	25 25 25 25 25       	and    $0x25252525,%eax
    85e9:	25 25 25 25 25       	and    $0x25252525,%eax
    85ee:	25 25 25 25 25       	and    $0x25252525,%eax
    85f3:	25 25 25 25 25       	and    $0x25252525,%eax
    85f8:	25 25 25 25 25       	and    $0x25252525,%eax
    85fd:	25 25 25 25 25       	and    $0x25252525,%eax
    8602:	25 25 25 25 25       	and    $0x25252525,%eax
    8607:	25 25 25 25 25       	and    $0x25252525,%eax
    860c:	25 25 25 25 25       	and    $0x25252525,%eax
    8611:	25 25 25 25 25       	and    $0x25252525,%eax
    8616:	25 25 25 25 25       	and    $0x25252525,%eax
    861b:	25 25 25 25 25       	and    $0x25252525,%eax
    8620:	25 25 25 25 25       	and    $0x25252525,%eax
    8625:	25 25 25 25 25       	and    $0x25252525,%eax
    862a:	25 25 25 25 25       	and    $0x25252525,%eax
    862f:	25 25 25 25 25       	and    $0x25252525,%eax
    8634:	25 25 25 25 25       	and    $0x25252525,%eax
    8639:	25 25 25 25 25       	and    $0x25252525,%eax
    863e:	25 25 25 25 25       	and    $0x25252525,%eax
    8643:	25 25 25 25 25       	and    $0x25252525,%eax
    8648:	25 25 25 25 25       	and    $0x25252525,%eax
    864d:	25 25 25 25 25       	and    $0x25252525,%eax
    8652:	25 25 25 25 25       	and    $0x25252525,%eax
    8657:	25 25 25 25 25       	and    $0x25252525,%eax
    865c:	25 25 25 25 25       	and    $0x25252525,%eax
    8661:	25 25 25 25 25       	and    $0x25252525,%eax
    8666:	25 25 25 25 25       	and    $0x25252525,%eax
    866b:	25 25 25 25 25       	and    $0x25252525,%eax
    8670:	25 25 25 25 25       	and    $0x25252525,%eax
    8675:	25 25 25 25 25       	and    $0x25252525,%eax
    867a:	25 25 25 25 25       	and    $0x25252525,%eax
    867f:	25 25 25 25 25       	and    $0x25252525,%eax
    8684:	25 25 25 25 25       	and    $0x25252525,%eax
    8689:	25 25 25 25 25       	and    $0x25252525,%eax
    868e:	25 25 25 25 25       	and    $0x25252525,%eax
    8693:	25 25 25 25 25       	and    $0x25252525,%eax
    8698:	25 25 25 25 25       	and    $0x25252525,%eax
    869d:	25 25 25 25 25       	and    $0x25252525,%eax
    86a2:	25 25 25 25 25       	and    $0x25252525,%eax
    86a7:	25 25 25 25 25       	and    $0x25252525,%eax
    86ac:	25 25 25 25 25       	and    $0x25252525,%eax
    86b1:	25 25 25 25 25       	and    $0x25252525,%eax
    86b6:	25 25 25 25 25       	and    $0x25252525,%eax
    86bb:	25 25 25 25 25       	and    $0x25252525,%eax
    86c0:	25 25 25 25 25       	and    $0x25252525,%eax
    86c5:	25 25 25 25 25       	and    $0x25252525,%eax
    86ca:	25 25 25 25 25       	and    $0x25252525,%eax
    86cf:	25 25 25 25 25       	and    $0x25252525,%eax
    86d4:	25 25 25 25 25       	and    $0x25252525,%eax
    86d9:	25 25 25 25 25       	and    $0x25252525,%eax
    86de:	25 25 25 25 25       	and    $0x25252525,%eax
    86e3:	25 25 25 25 25       	and    $0x25252525,%eax
    86e8:	25 25 25 25 25       	and    $0x25252525,%eax
    86ed:	25 25 25 25 25       	and    $0x25252525,%eax
    86f2:	25 25 25 25 25       	and    $0x25252525,%eax
    86f7:	25 25 25 25 25       	and    $0x25252525,%eax
    86fc:	25 25 25 25 25       	and    $0x25252525,%eax
    8701:	25 25 25 25 25       	and    $0x25252525,%eax
    8706:	25 25 25 25 25       	and    $0x25252525,%eax
    870b:	25 25 25 25 25       	and    $0x25252525,%eax
    8710:	25 25 25 25 25       	and    $0x25252525,%eax
    8715:	25 25 25 25 25       	and    $0x25252525,%eax
    871a:	25 25 25 25 25       	and    $0x25252525,%eax
    871f:	25 25 25 25 25       	and    $0x25252525,%eax
    8724:	25 25 25 25 25       	and    $0x25252525,%eax
    8729:	25 25 25 25 25       	and    $0x25252525,%eax
    872e:	25 25 25 25 25       	and    $0x25252525,%eax
    8733:	25 25 25 25 25       	and    $0x25252525,%eax
    8738:	25 25 25 25 25       	and    $0x25252525,%eax
    873d:	25 25 25 25 25       	and    $0x25252525,%eax
    8742:	25 25 25 25 25       	and    $0x25252525,%eax
    8747:	25 25 25 25 25       	and    $0x25252525,%eax
    874c:	25 25 25 25 25       	and    $0x25252525,%eax
    8751:	25 25 25 25 25       	and    $0x25252525,%eax
    8756:	25 25 25 25 25       	and    $0x25252525,%eax
    875b:	25 25 25 25 25       	and    $0x25252525,%eax
    8760:	25 25 25 25 25       	and    $0x25252525,%eax
    8765:	25 25 25 25 25       	and    $0x25252525,%eax
    876a:	25 25 25 25 25       	and    $0x25252525,%eax
    876f:	25 25 25 25 25       	and    $0x25252525,%eax
    8774:	25 25 25 25 25       	and    $0x25252525,%eax
    8779:	25 25 25 25 25       	and    $0x25252525,%eax
    877e:	25 25 25 25 25       	and    $0x25252525,%eax
    8783:	25 25 25 25 25       	and    $0x25252525,%eax
    8788:	25 25 25 25 25       	and    $0x25252525,%eax
    878d:	25 25 25 25 25       	and    $0x25252525,%eax
    8792:	25 25 25 25 25       	and    $0x25252525,%eax
    8797:	25 25 25 25 25       	and    $0x25252525,%eax
    879c:	25 25 25 25 25       	and    $0x25252525,%eax
    87a1:	25 25 25 25 25       	and    $0x25252525,%eax
    87a6:	25 25 25 25 25       	and    $0x25252525,%eax
    87ab:	25 25 25 25 25       	and    $0x25252525,%eax
    87b0:	25 25 25 25 25       	and    $0x25252525,%eax
    87b5:	25 25 25 25 25       	and    $0x25252525,%eax
    87ba:	25 25 25 25 25       	and    $0x25252525,%eax
    87bf:	25 25 25 25 25       	and    $0x25252525,%eax
    87c4:	25 25 25 25 25       	and    $0x25252525,%eax
    87c9:	25 25 25 25 25       	and    $0x25252525,%eax
    87ce:	25 25 25 25 25       	and    $0x25252525,%eax
    87d3:	25 25 25 25 25       	and    $0x25252525,%eax
    87d8:	25 25 25 25 25       	and    $0x25252525,%eax
    87dd:	25 25 25 25 25       	and    $0x25252525,%eax
    87e2:	25 25 25 25 25       	and    $0x25252525,%eax
    87e7:	25 25 25 25 25       	and    $0x25252525,%eax
    87ec:	25 25 25 25 25       	and    $0x25252525,%eax
    87f1:	25 25 25 25 25       	and    $0x25252525,%eax
    87f6:	25 25 25 25 25       	and    $0x25252525,%eax
    87fb:	25 25 25 25 25       	and    $0x25252525,%eax
    8800:	25 25 25 25 25       	and    $0x25252525,%eax
    8805:	25 25 25 25 25       	and    $0x25252525,%eax
    880a:	25 25 25 25 25       	and    $0x25252525,%eax
    880f:	25 25 25 25 25       	and    $0x25252525,%eax
    8814:	25 25 25 25 25       	and    $0x25252525,%eax
    8819:	25 25 25 25 25       	and    $0x25252525,%eax
    881e:	25 25 25 25 25       	and    $0x25252525,%eax
    8823:	25 25 25 25 25       	and    $0x25252525,%eax
    8828:	25 25 25 25 25       	and    $0x25252525,%eax
    882d:	25 25 25 25 25       	and    $0x25252525,%eax
    8832:	25 25 25 25 25       	and    $0x25252525,%eax
    8837:	25 25 25 25 25       	and    $0x25252525,%eax
    883c:	25 25 25 25 25       	and    $0x25252525,%eax
    8841:	25 25 25 25 25       	and    $0x25252525,%eax
    8846:	25 25 25 25 25       	and    $0x25252525,%eax
    884b:	25 25 25 25 25       	and    $0x25252525,%eax
    8850:	25 25 25 25 25       	and    $0x25252525,%eax
    8855:	25 25 25 25 25       	and    $0x25252525,%eax
    885a:	25 25 25 25 25       	and    $0x25252525,%eax
    885f:	25 25 25 25 25       	and    $0x25252525,%eax
    8864:	25 25 25 25 25       	and    $0x25252525,%eax
    8869:	25 25 25 25 25       	and    $0x25252525,%eax
    886e:	25 25 25 25 25       	and    $0x25252525,%eax
    8873:	25 25 25 25 25       	and    $0x25252525,%eax
    8878:	25 25 25 25 25       	and    $0x25252525,%eax
    887d:	25 25 25 25 25       	and    $0x25252525,%eax
    8882:	25 25 25 25 25       	and    $0x25252525,%eax
    8887:	25 25 25 25 25       	and    $0x25252525,%eax
    888c:	25 25 25 25 25       	and    $0x25252525,%eax
    8891:	25 25 25 25 25       	and    $0x25252525,%eax
    8896:	25 25 25 25 25       	and    $0x25252525,%eax
    889b:	25 25 25 25 25       	and    $0x25252525,%eax
    88a0:	25 25 25 25 25       	and    $0x25252525,%eax
    88a5:	25 25 25 25 25       	and    $0x25252525,%eax
    88aa:	25 25 25 25 25       	and    $0x25252525,%eax
    88af:	25 25 25 25 25       	and    $0x25252525,%eax
    88b4:	25 25 25 25 25       	and    $0x25252525,%eax
    88b9:	25 25 25 25 25       	and    $0x25252525,%eax
    88be:	25 25 25 25 25       	and    $0x25252525,%eax
    88c3:	25 25 25 25 25       	and    $0x25252525,%eax
    88c8:	25 25 25 25 25       	and    $0x25252525,%eax
    88cd:	25 25 25 25 25       	and    $0x25252525,%eax
    88d2:	25 25 25 25 25       	and    $0x25252525,%eax
    88d7:	25 25 25 25 25       	and    $0x25252525,%eax
    88dc:	25 25 25 25 25       	and    $0x25252525,%eax
    88e1:	25 25 25 25 25       	and    $0x25252525,%eax
    88e6:	25 25 25 25 25       	and    $0x25252525,%eax
    88eb:	25 25 25 25 25       	and    $0x25252525,%eax
    88f0:	25 25 25 25 25       	and    $0x25252525,%eax
    88f5:	25 25 25 25 25       	and    $0x25252525,%eax
    88fa:	25 25 25 25 25       	and    $0x25252525,%eax
    88ff:	25 25 25 25 25       	and    $0x25252525,%eax
    8904:	25 25 25 25 25       	and    $0x25252525,%eax
    8909:	25 25 25 25 25       	and    $0x25252525,%eax
    890e:	25 25 25 25 25       	and    $0x25252525,%eax
    8913:	25 25 25 25 25       	and    $0x25252525,%eax
    8918:	25 25 25 25 25       	and    $0x25252525,%eax
    891d:	25 25 25 25 25       	and    $0x25252525,%eax
    8922:	25 25 25 25 25       	and    $0x25252525,%eax
    8927:	25 25 25 25 25       	and    $0x25252525,%eax
    892c:	25 25 25 25 25       	and    $0x25252525,%eax
    8931:	25 25 25 25 25       	and    $0x25252525,%eax
    8936:	25 25 25 25 25       	and    $0x25252525,%eax
    893b:	25 25 25 25 25       	and    $0x25252525,%eax
    8940:	25 25 25 25 25       	and    $0x25252525,%eax
    8945:	25 25 25 25 25       	and    $0x25252525,%eax
    894a:	25 25 25 25 25       	and    $0x25252525,%eax
    894f:	25 25 25 25 25       	and    $0x25252525,%eax
    8954:	25 25 25 25 25       	and    $0x25252525,%eax
    8959:	25 25 25 25 25       	and    $0x25252525,%eax
    895e:	25 25 25 25 25       	and    $0x25252525,%eax
    8963:	25 25 25 25 25       	and    $0x25252525,%eax
    8968:	25 25 25 25 25       	and    $0x25252525,%eax
    896d:	25 25 25 25 25       	and    $0x25252525,%eax
    8972:	25 25 25 25 25       	and    $0x25252525,%eax
    8977:	25 25 25 25 25       	and    $0x25252525,%eax
    897c:	25 25 25 25 25       	and    $0x25252525,%eax
    8981:	25 25 25 25 25       	and    $0x25252525,%eax
    8986:	25 25 25 25 25       	and    $0x25252525,%eax
    898b:	25 25 25 25 25       	and    $0x25252525,%eax
    8990:	25 25 25 25 25       	and    $0x25252525,%eax
    8995:	25 25 25 25 25       	and    $0x25252525,%eax
    899a:	25 25 25 25 25       	and    $0x25252525,%eax
    899f:	25 25 25 25 25       	and    $0x25252525,%eax
    89a4:	25 25 25 25 25       	and    $0x25252525,%eax
    89a9:	25 25 25 25 25       	and    $0x25252525,%eax
    89ae:	25 25 25 25 25       	and    $0x25252525,%eax
    89b3:	25 25 25 25 25       	and    $0x25252525,%eax
    89b8:	25 25 25 25 25       	and    $0x25252525,%eax
    89bd:	25 25 25 25 25       	and    $0x25252525,%eax
    89c2:	25 25 25 25 25       	and    $0x25252525,%eax
    89c7:	25 25 25 25 25       	and    $0x25252525,%eax
    89cc:	25 25 25 25 25       	and    $0x25252525,%eax
    89d1:	25 25 25 25 25       	and    $0x25252525,%eax
    89d6:	25 25 25 25 25       	and    $0x25252525,%eax
    89db:	25 25 25 25 25       	and    $0x25252525,%eax
    89e0:	25 25 25 25 25       	and    $0x25252525,%eax
    89e5:	25 25 25 25 25       	and    $0x25252525,%eax
    89ea:	25 25 25 25 25       	and    $0x25252525,%eax
    89ef:	25 25 25 25 25       	and    $0x25252525,%eax
    89f4:	25 25 25 25 25       	and    $0x25252525,%eax
    89f9:	25 25 25 25 25       	and    $0x25252525,%eax
    89fe:	25 25 25 25 25       	and    $0x25252525,%eax
    8a03:	25 25 25 25 25       	and    $0x25252525,%eax
    8a08:	25 25 25 25 25       	and    $0x25252525,%eax
    8a0d:	25 25 25 25 25       	and    $0x25252525,%eax
    8a12:	25 25 25 25 25       	and    $0x25252525,%eax
    8a17:	25 25 25 25 25       	and    $0x25252525,%eax
    8a1c:	25 25 25 25 25       	and    $0x25252525,%eax
    8a21:	25 25 25 25 25       	and    $0x25252525,%eax
    8a26:	25 25 25 25 25       	and    $0x25252525,%eax
    8a2b:	25 25 25 25 25       	and    $0x25252525,%eax
    8a30:	25 25 25 25 25       	and    $0x25252525,%eax
    8a35:	25 25 25 25 25       	and    $0x25252525,%eax
    8a3a:	25 25 25 25 25       	and    $0x25252525,%eax
    8a3f:	25 25 25 25 25       	and    $0x25252525,%eax
    8a44:	25 25 25 25 25       	and    $0x25252525,%eax
    8a49:	25 25 25 25 25       	and    $0x25252525,%eax
    8a4e:	25 25 25 25 25       	and    $0x25252525,%eax
    8a53:	25 25 25 25 25       	and    $0x25252525,%eax
    8a58:	25 25 25 25 25       	and    $0x25252525,%eax
    8a5d:	25 25 25 25 25       	and    $0x25252525,%eax
    8a62:	25 25 25 25 25       	and    $0x25252525,%eax
    8a67:	25 25 25 25 25       	and    $0x25252525,%eax
    8a6c:	25 25 25 25 25       	and    $0x25252525,%eax
    8a71:	25 25 25 25 25       	and    $0x25252525,%eax
    8a76:	25 25 25 25 25       	and    $0x25252525,%eax
    8a7b:	25 25 25 25 25       	and    $0x25252525,%eax
    8a80:	25 25 25 25 25       	and    $0x25252525,%eax
    8a85:	25 25 25 25 25       	and    $0x25252525,%eax
    8a8a:	25 25 25 25 25       	and    $0x25252525,%eax
    8a8f:	25 25 25 25 25       	and    $0x25252525,%eax
    8a94:	25 25 25 25 25       	and    $0x25252525,%eax
    8a99:	25 25 25 25 25       	and    $0x25252525,%eax
    8a9e:	25 25 25 25 25       	and    $0x25252525,%eax
    8aa3:	25 25 25 25 25       	and    $0x25252525,%eax
    8aa8:	25 25 25 25 25       	and    $0x25252525,%eax
    8aad:	25 25 25 25 25       	and    $0x25252525,%eax
    8ab2:	25 25 25 25 25       	and    $0x25252525,%eax
    8ab7:	25 25 25 25 25       	and    $0x25252525,%eax
    8abc:	25 25 25 25 25       	and    $0x25252525,%eax
    8ac1:	25 25 25 25 25       	and    $0x25252525,%eax
    8ac6:	25 25 25 25 25       	and    $0x25252525,%eax
    8acb:	25 25 25 25 25       	and    $0x25252525,%eax
    8ad0:	25 25 25 25 25       	and    $0x25252525,%eax
    8ad5:	25 25 25 25 25       	and    $0x25252525,%eax
    8ada:	25 25 25 25 25       	and    $0x25252525,%eax
    8adf:	25 25 25 25 25       	and    $0x25252525,%eax
    8ae4:	25 25 25 25 25       	and    $0x25252525,%eax
    8ae9:	25 25 25 25 25       	and    $0x25252525,%eax
    8aee:	25 25 25 25 25       	and    $0x25252525,%eax
    8af3:	25 25 25 25 25       	and    $0x25252525,%eax
    8af8:	25 25 25 25 25       	and    $0x25252525,%eax
    8afd:	25 25 25 25 25       	and    $0x25252525,%eax
    8b02:	25 25 25 25 25       	and    $0x25252525,%eax
    8b07:	25 25 25 25 25       	and    $0x25252525,%eax
    8b0c:	25 25 25 25 25       	and    $0x25252525,%eax
    8b11:	25 25 25 25 25       	and    $0x25252525,%eax
    8b16:	25 25 25 25 25       	and    $0x25252525,%eax
    8b1b:	25 25 25 25 25       	and    $0x25252525,%eax
    8b20:	25 25 25 25 25       	and    $0x25252525,%eax
    8b25:	25 25 25 25 25       	and    $0x25252525,%eax
    8b2a:	25 25 25 25 25       	and    $0x25252525,%eax
    8b2f:	25 25 25 25 25       	and    $0x25252525,%eax
    8b34:	25 25 25 25 25       	and    $0x25252525,%eax
    8b39:	25 25 25 25 25       	and    $0x25252525,%eax
    8b3e:	25 25 25 25 25       	and    $0x25252525,%eax
    8b43:	25 25 25 25 25       	and    $0x25252525,%eax
    8b48:	25 25 25 25 25       	and    $0x25252525,%eax
    8b4d:	25 25 25 25 25       	and    $0x25252525,%eax
    8b52:	25 25 25 25 25       	and    $0x25252525,%eax
    8b57:	25 25 25 25 25       	and    $0x25252525,%eax
    8b5c:	25 25 25 25 25       	and    $0x25252525,%eax
    8b61:	25 25 25 25 25       	and    $0x25252525,%eax
    8b66:	25 25 25 25 25       	and    $0x25252525,%eax
    8b6b:	25 25 25 25 25       	and    $0x25252525,%eax
    8b70:	25 25 25 25 25       	and    $0x25252525,%eax
    8b75:	25 25 25 25 25       	and    $0x25252525,%eax
    8b7a:	25 25 25 25 25       	and    $0x25252525,%eax
    8b7f:	25 25 25 25 25       	and    $0x25252525,%eax
    8b84:	25 25 25 25 25       	and    $0x25252525,%eax
    8b89:	25 25 25 25 25       	and    $0x25252525,%eax
    8b8e:	25 25 25 25 25       	and    $0x25252525,%eax
    8b93:	25 25 25 25 25       	and    $0x25252525,%eax
    8b98:	25 25 25 25 25       	and    $0x25252525,%eax
    8b9d:	25 25 25 25 25       	and    $0x25252525,%eax
    8ba2:	25 25 25 25 25       	and    $0x25252525,%eax
    8ba7:	25 25 25 25 25       	and    $0x25252525,%eax
    8bac:	25 25 25 25 25       	and    $0x25252525,%eax
    8bb1:	25 25 25 25 25       	and    $0x25252525,%eax
    8bb6:	25 25 25 25 25       	and    $0x25252525,%eax
    8bbb:	25 25 25 25 25       	and    $0x25252525,%eax
    8bc0:	25 25 25 25 25       	and    $0x25252525,%eax
    8bc5:	25 25 25 25 25       	and    $0x25252525,%eax
    8bca:	25 25 25 25 25       	and    $0x25252525,%eax
    8bcf:	25 25 25 25 25       	and    $0x25252525,%eax
    8bd4:	25 25 25 25 25       	and    $0x25252525,%eax
    8bd9:	25 25 25 25 25       	and    $0x25252525,%eax
    8bde:	25 25 25 25 25       	and    $0x25252525,%eax
    8be3:	25 25 25 25 25       	and    $0x25252525,%eax
    8be8:	25 25 25 25 25       	and    $0x25252525,%eax
    8bed:	25 25 25 25 25       	and    $0x25252525,%eax
    8bf2:	25 25 25 25 25       	and    $0x25252525,%eax
    8bf7:	25 25 25 25 25       	and    $0x25252525,%eax
    8bfc:	25 25 25 25 25       	and    $0x25252525,%eax
    8c01:	25 25 25 25 25       	and    $0x25252525,%eax
    8c06:	25 25 25 25 25       	and    $0x25252525,%eax
    8c0b:	25 25 25 25 25       	and    $0x25252525,%eax
    8c10:	25 25 25 25 25       	and    $0x25252525,%eax
    8c15:	25 25 25 25 25       	and    $0x25252525,%eax
    8c1a:	25 25 25 25 25       	and    $0x25252525,%eax
    8c1f:	25 25 25 25 25       	and    $0x25252525,%eax
    8c24:	25 25 25 25 25       	and    $0x25252525,%eax
    8c29:	25 25 25 25 25       	and    $0x25252525,%eax
    8c2e:	25 25 25 25 25       	and    $0x25252525,%eax
    8c33:	25 25 25 25 25       	and    $0x25252525,%eax
    8c38:	25 25 25 25 25       	and    $0x25252525,%eax
    8c3d:	25 25 25 25 25       	and    $0x25252525,%eax
    8c42:	25 25 25 25 25       	and    $0x25252525,%eax
    8c47:	25 25 25 25 25       	and    $0x25252525,%eax
    8c4c:	25 25 25 25 25       	and    $0x25252525,%eax
    8c51:	25 25 25 25 25       	and    $0x25252525,%eax
    8c56:	25 25 25 25 25       	and    $0x25252525,%eax
    8c5b:	25 25 25 25 25       	and    $0x25252525,%eax
    8c60:	25 25 25 25 25       	and    $0x25252525,%eax
    8c65:	25 25 25 25 25       	and    $0x25252525,%eax
    8c6a:	25 25 25 25 25       	and    $0x25252525,%eax
    8c6f:	25 25 25 25 25       	and    $0x25252525,%eax
    8c74:	25 25 25 25 25       	and    $0x25252525,%eax
    8c79:	25 25 25 25 25       	and    $0x25252525,%eax
    8c7e:	25 25 25 25 25       	and    $0x25252525,%eax
    8c83:	25 25 25 25 25       	and    $0x25252525,%eax
    8c88:	25 25 25 25 25       	and    $0x25252525,%eax
    8c8d:	25 25 25 25 25       	and    $0x25252525,%eax
    8c92:	25 25 25 25 25       	and    $0x25252525,%eax
    8c97:	25 25 25 25 25       	and    $0x25252525,%eax
    8c9c:	25 25 25 25 25       	and    $0x25252525,%eax
    8ca1:	25 25 25 25 25       	and    $0x25252525,%eax
    8ca6:	25 25 25 25 25       	and    $0x25252525,%eax
    8cab:	25 25 25 25 25       	and    $0x25252525,%eax
    8cb0:	25 25 25 25 25       	and    $0x25252525,%eax
    8cb5:	25 25 25 25 25       	and    $0x25252525,%eax
    8cba:	25 25 25 25 25       	and    $0x25252525,%eax
    8cbf:	25 25 25 25 25       	and    $0x25252525,%eax
    8cc4:	25 25 25 25 25       	and    $0x25252525,%eax
    8cc9:	25 25 25 25 25       	and    $0x25252525,%eax
    8cce:	25 25 25 25 25       	and    $0x25252525,%eax
    8cd3:	25 25 25 25 25       	and    $0x25252525,%eax
    8cd8:	25 25 25 25 25       	and    $0x25252525,%eax
    8cdd:	25 25 25 25 25       	and    $0x25252525,%eax
    8ce2:	25 25 25 25 25       	and    $0x25252525,%eax
    8ce7:	25 25 25 25 25       	and    $0x25252525,%eax
    8cec:	25 25 25 25 25       	and    $0x25252525,%eax
    8cf1:	25 25 25 25 25       	and    $0x25252525,%eax
    8cf6:	25 25 25 25 25       	and    $0x25252525,%eax
    8cfb:	25 25 25 25 25       	and    $0x25252525,%eax
    8d00:	25 25 25 25 25       	and    $0x25252525,%eax
    8d05:	25 25 25 25 25       	and    $0x25252525,%eax
    8d0a:	25 25 25 25 25       	and    $0x25252525,%eax
    8d0f:	25 25 25 25 25       	and    $0x25252525,%eax
    8d14:	25 25 25 25 25       	and    $0x25252525,%eax
    8d19:	25 25 25 25 25       	and    $0x25252525,%eax
    8d1e:	25 25 25 25 25       	and    $0x25252525,%eax
    8d23:	25 25 25 25 25       	and    $0x25252525,%eax
    8d28:	25 25 25 25 25       	and    $0x25252525,%eax
    8d2d:	25 25 25 25 25       	and    $0x25252525,%eax
    8d32:	25 25 25 25 25       	and    $0x25252525,%eax
    8d37:	25 25 25 25 25       	and    $0x25252525,%eax
    8d3c:	25 25 25 25 25       	and    $0x25252525,%eax
    8d41:	25 25 25 25 25       	and    $0x25252525,%eax
    8d46:	25 25 25 25 25       	and    $0x25252525,%eax
    8d4b:	25 25 25 25 25       	and    $0x25252525,%eax
    8d50:	25 25 25 25 25       	and    $0x25252525,%eax
    8d55:	25 25 25 25 25       	and    $0x25252525,%eax
    8d5a:	25 25 25 25 25       	and    $0x25252525,%eax
    8d5f:	25 25 25 25 25       	and    $0x25252525,%eax
    8d64:	25 25 25 25 25       	and    $0x25252525,%eax
    8d69:	25 25 25 25 25       	and    $0x25252525,%eax
    8d6e:	25 25 25 25 25       	and    $0x25252525,%eax
    8d73:	25 25 25 25 25       	and    $0x25252525,%eax
    8d78:	25 25 25 25 25       	and    $0x25252525,%eax
    8d7d:	25 25 25 25 25       	and    $0x25252525,%eax
    8d82:	25 25 25 25 25       	and    $0x25252525,%eax
    8d87:	25 25 25 25 25       	and    $0x25252525,%eax
    8d8c:	25 25 25 25 25       	and    $0x25252525,%eax
    8d91:	25 25 25 25 25       	and    $0x25252525,%eax
    8d96:	25 25 25 25 25       	and    $0x25252525,%eax
    8d9b:	25 25 25 25 25       	and    $0x25252525,%eax
    8da0:	25 25 25 25 25       	and    $0x25252525,%eax
    8da5:	25 25 25 25 25       	and    $0x25252525,%eax
    8daa:	25 25 25 25 25       	and    $0x25252525,%eax
    8daf:	25 25 25 25 25       	and    $0x25252525,%eax
    8db4:	25 25 25 25 25       	and    $0x25252525,%eax
    8db9:	25 25 25 25 25       	and    $0x25252525,%eax
    8dbe:	25 25 25 25 25       	and    $0x25252525,%eax
    8dc3:	25 25 25 25 25       	and    $0x25252525,%eax
    8dc8:	25 25 25 25 25       	and    $0x25252525,%eax
    8dcd:	25 25 25 25 25       	and    $0x25252525,%eax
    8dd2:	25 25 25 25 25       	and    $0x25252525,%eax
    8dd7:	25 25 25 25 25       	and    $0x25252525,%eax
    8ddc:	25 25 25 25 25       	and    $0x25252525,%eax
    8de1:	25 25 25 25 25       	and    $0x25252525,%eax
    8de6:	25 25 25 25 25       	and    $0x25252525,%eax
    8deb:	25 25 25 25 25       	and    $0x25252525,%eax
    8df0:	25 25 25 25 25       	and    $0x25252525,%eax
    8df5:	25 25 25 25 25       	and    $0x25252525,%eax
    8dfa:	25 25 25 25 25       	and    $0x25252525,%eax
    8dff:	25 25 25 25 25       	and    $0x25252525,%eax
    8e04:	25 25 25 25 25       	and    $0x25252525,%eax
    8e09:	25 25 25 25 25       	and    $0x25252525,%eax
    8e0e:	25 25 25 25 25       	and    $0x25252525,%eax
    8e13:	25 25 25 25 25       	and    $0x25252525,%eax
    8e18:	25 25 25 25 25       	and    $0x25252525,%eax
    8e1d:	25 25 25 25 25       	and    $0x25252525,%eax
    8e22:	25 25 25 25 25       	and    $0x25252525,%eax
    8e27:	25 25 25 25 25       	and    $0x25252525,%eax
    8e2c:	25 25 25 25 25       	and    $0x25252525,%eax
    8e31:	25 25 25 25 25       	and    $0x25252525,%eax
    8e36:	25 25 25 25 25       	and    $0x25252525,%eax
    8e3b:	25 25 25 25 25       	and    $0x25252525,%eax
    8e40:	25 25 25 25 25       	and    $0x25252525,%eax
    8e45:	25 25 25 25 25       	and    $0x25252525,%eax
    8e4a:	25 25 25 25 25       	and    $0x25252525,%eax
    8e4f:	25 25 25 25 25       	and    $0x25252525,%eax
    8e54:	25 25 25 25 25       	and    $0x25252525,%eax
    8e59:	25 25 25 25 25       	and    $0x25252525,%eax
    8e5e:	25 25 25 25 25       	and    $0x25252525,%eax
    8e63:	25 25 25 25 25       	and    $0x25252525,%eax
    8e68:	25 25 25 25 25       	and    $0x25252525,%eax
    8e6d:	25 25 25 25 25       	and    $0x25252525,%eax
    8e72:	25 25 25 25 25       	and    $0x25252525,%eax
    8e77:	25 25 25 25 25       	and    $0x25252525,%eax
    8e7c:	25 25 25 25 25       	and    $0x25252525,%eax
    8e81:	25 25 25 25 25       	and    $0x25252525,%eax
    8e86:	25 25 25 25 25       	and    $0x25252525,%eax
    8e8b:	25 25 25 25 25       	and    $0x25252525,%eax
    8e90:	25 25 25 25 25       	and    $0x25252525,%eax
    8e95:	25 25 25 25 25       	and    $0x25252525,%eax
    8e9a:	25 25 25 25 25       	and    $0x25252525,%eax
    8e9f:	25 25 25 25 25       	and    $0x25252525,%eax
    8ea4:	25 25 25 25 25       	and    $0x25252525,%eax
    8ea9:	25 25 25 25 25       	and    $0x25252525,%eax
    8eae:	25 25 25 25 25       	and    $0x25252525,%eax
    8eb3:	25 25 25 25 25       	and    $0x25252525,%eax
    8eb8:	25 25 25 25 25       	and    $0x25252525,%eax
    8ebd:	25 25 25 25 25       	and    $0x25252525,%eax
    8ec2:	25 25 25 25 25       	and    $0x25252525,%eax
    8ec7:	25 25 25 25 25       	and    $0x25252525,%eax
    8ecc:	25 25 25 25 25       	and    $0x25252525,%eax
    8ed1:	25 25 25 25 25       	and    $0x25252525,%eax
    8ed6:	25 25 25 25 25       	and    $0x25252525,%eax
    8edb:	25 25 25 25 25       	and    $0x25252525,%eax
    8ee0:	25 25 25 25 25       	and    $0x25252525,%eax
    8ee5:	25 25 25 25 25       	and    $0x25252525,%eax
    8eea:	25 25 25 25 25       	and    $0x25252525,%eax
    8eef:	25 25 25 25 25       	and    $0x25252525,%eax
    8ef4:	25 25 25 25 25       	and    $0x25252525,%eax
    8ef9:	25 25 25 25 25       	and    $0x25252525,%eax
    8efe:	25 25 25 25 25       	and    $0x25252525,%eax
    8f03:	25 25 25 25 25       	and    $0x25252525,%eax
    8f08:	25 25 25 25 25       	and    $0x25252525,%eax
    8f0d:	25 25 25 25 25       	and    $0x25252525,%eax
    8f12:	25 25 25 25 25       	and    $0x25252525,%eax
    8f17:	25 25 25 25 25       	and    $0x25252525,%eax
    8f1c:	25 25 25 25 25       	and    $0x25252525,%eax
    8f21:	25 25 25 25 25       	and    $0x25252525,%eax
    8f26:	25 25 25 25 25       	and    $0x25252525,%eax
    8f2b:	25 25 25 25 25       	and    $0x25252525,%eax
    8f30:	25 25 25 25 25       	and    $0x25252525,%eax
    8f35:	25 25 25 25 25       	and    $0x25252525,%eax
    8f3a:	25 25 25 25 25       	and    $0x25252525,%eax
    8f3f:	25 25 25 25 25       	and    $0x25252525,%eax
    8f44:	25 25 25 25 25       	and    $0x25252525,%eax
    8f49:	25 25 25 25 25       	and    $0x25252525,%eax
    8f4e:	25 25 25 25 25       	and    $0x25252525,%eax
    8f53:	25 25 25 25 25       	and    $0x25252525,%eax
    8f58:	25 25 25 25 25       	and    $0x25252525,%eax
    8f5d:	25 25 25 25 25       	and    $0x25252525,%eax
    8f62:	25 25 25 25 25       	and    $0x25252525,%eax
    8f67:	25 25 25 25 25       	and    $0x25252525,%eax
    8f6c:	25 25 25 25 25       	and    $0x25252525,%eax
    8f71:	25 25 25 25 25       	and    $0x25252525,%eax
    8f76:	25 25 25 25 25       	and    $0x25252525,%eax
    8f7b:	25 25 25 25 25       	and    $0x25252525,%eax
    8f80:	25 25 25 25 25       	and    $0x25252525,%eax
    8f85:	25 25 25 25 25       	and    $0x25252525,%eax
    8f8a:	25 25 25 25 25       	and    $0x25252525,%eax
    8f8f:	25 25 25 25 25       	and    $0x25252525,%eax
    8f94:	25 25 25 25 25       	and    $0x25252525,%eax
    8f99:	25 25 25 25 25       	and    $0x25252525,%eax
    8f9e:	25 25 25 25 25       	and    $0x25252525,%eax
    8fa3:	25 25 25 25 25       	and    $0x25252525,%eax
    8fa8:	25 25 25 25 25       	and    $0x25252525,%eax
    8fad:	25 25 25 25 25       	and    $0x25252525,%eax
    8fb2:	25 25 25 25 25       	and    $0x25252525,%eax
    8fb7:	25 25 25 25 25       	and    $0x25252525,%eax
    8fbc:	25 25 25 25 25       	and    $0x25252525,%eax
    8fc1:	25 25 25 25 25       	and    $0x25252525,%eax
    8fc6:	25 25 25 25 25       	and    $0x25252525,%eax
    8fcb:	25 25 25 25 25       	and    $0x25252525,%eax
    8fd0:	25 25 25 25 25       	and    $0x25252525,%eax
    8fd5:	25 25 25 25 25       	and    $0x25252525,%eax
    8fda:	25 25 25 25 25       	and    $0x25252525,%eax
    8fdf:	25 25 25 25 25       	and    $0x25252525,%eax
    8fe4:	25 25 25 25 25       	and    $0x25252525,%eax
    8fe9:	25 25 25 25 25       	and    $0x25252525,%eax
    8fee:	25 25 25 25 25       	and    $0x25252525,%eax
    8ff3:	25 25 25 25 25       	and    $0x25252525,%eax
    8ff8:	25 25 25 25 25       	and    $0x25252525,%eax
    8ffd:	25 25 25 25 25       	and    $0x25252525,%eax
    9002:	25 25 25 25 25       	and    $0x25252525,%eax
    9007:	25 25 25 25 25       	and    $0x25252525,%eax
    900c:	25 25 25 25 25       	and    $0x25252525,%eax
    9011:	25 25 25 25 25       	and    $0x25252525,%eax
    9016:	25 25 25 25 25       	and    $0x25252525,%eax
    901b:	25 25 25 25 25       	and    $0x25252525,%eax
    9020:	25 25 25 25 25       	and    $0x25252525,%eax
    9025:	25 25 25 25 25       	and    $0x25252525,%eax
    902a:	25 25 25 25 25       	and    $0x25252525,%eax
    902f:	25 25 25 25 25       	and    $0x25252525,%eax
    9034:	25 25 25 25 25       	and    $0x25252525,%eax
    9039:	25 25 25 25 25       	and    $0x25252525,%eax
    903e:	25 25 25 25 25       	and    $0x25252525,%eax
    9043:	25 25 25 25 25       	and    $0x25252525,%eax
    9048:	25 25 25 25 25       	and    $0x25252525,%eax
    904d:	25 25 25 25 25       	and    $0x25252525,%eax
    9052:	25 25 25 25 25       	and    $0x25252525,%eax
    9057:	25 25 25 25 25       	and    $0x25252525,%eax
    905c:	25 25 25 25 25       	and    $0x25252525,%eax
    9061:	25 25 25 25 25       	and    $0x25252525,%eax
    9066:	25 25 25 25 25       	and    $0x25252525,%eax
    906b:	25 25 25 25 25       	and    $0x25252525,%eax
    9070:	25 25 25 25 25       	and    $0x25252525,%eax
    9075:	25 25 25 25 25       	and    $0x25252525,%eax
    907a:	25 25 25 25 25       	and    $0x25252525,%eax
    907f:	25 25 25 25 25       	and    $0x25252525,%eax
    9084:	25 25 25 25 25       	and    $0x25252525,%eax
    9089:	25 25 25 25 25       	and    $0x25252525,%eax
    908e:	25 25 25 25 25       	and    $0x25252525,%eax
    9093:	25 25 25 25 25       	and    $0x25252525,%eax
    9098:	25 25 25 25 25       	and    $0x25252525,%eax
    909d:	25 25 25 25 25       	and    $0x25252525,%eax
    90a2:	25 25 25 25 25       	and    $0x25252525,%eax
    90a7:	25 25 25 25 25       	and    $0x25252525,%eax
    90ac:	25 25 25 25 25       	and    $0x25252525,%eax
    90b1:	25 25 25 25 25       	and    $0x25252525,%eax
    90b6:	25 25 25 25 25       	and    $0x25252525,%eax
    90bb:	25 25 25 25 25       	and    $0x25252525,%eax
    90c0:	25 25 25 25 25       	and    $0x25252525,%eax
    90c5:	25 25 25 25 25       	and    $0x25252525,%eax
    90ca:	25 25 25 25 25       	and    $0x25252525,%eax
    90cf:	25 25 25 25 25       	and    $0x25252525,%eax
    90d4:	25 25 25 25 25       	and    $0x25252525,%eax
    90d9:	25 25 25 25 25       	and    $0x25252525,%eax
    90de:	25 25 25 25 25       	and    $0x25252525,%eax
    90e3:	25 25 25 25 25       	and    $0x25252525,%eax
    90e8:	25 25 25 25 25       	and    $0x25252525,%eax
    90ed:	25 25 25 25 25       	and    $0x25252525,%eax
    90f2:	25 25 25 25 25       	and    $0x25252525,%eax
    90f7:	25 25 25 25 25       	and    $0x25252525,%eax
    90fc:	25 25 25 25 25       	and    $0x25252525,%eax
    9101:	25 25 25 25 25       	and    $0x25252525,%eax
    9106:	25 25 25 25 25       	and    $0x25252525,%eax
    910b:	25 25 25 25 25       	and    $0x25252525,%eax
    9110:	25 25 25 25 25       	and    $0x25252525,%eax
    9115:	25 25 25 25 25       	and    $0x25252525,%eax
    911a:	25 25 25 25 25       	and    $0x25252525,%eax
    911f:	25 25 25 25 25       	and    $0x25252525,%eax
    9124:	25 25 25 25 25       	and    $0x25252525,%eax
    9129:	25 25 25 25 25       	and    $0x25252525,%eax
    912e:	25 25 25 25 25       	and    $0x25252525,%eax
    9133:	25 25 25 25 25       	and    $0x25252525,%eax
    9138:	25 25 25 25 25       	and    $0x25252525,%eax
    913d:	25 25 25 25 25       	and    $0x25252525,%eax
    9142:	25 25 25 25 25       	and    $0x25252525,%eax
    9147:	25 25 25 25 25       	and    $0x25252525,%eax
    914c:	25 25 25 25 25       	and    $0x25252525,%eax
    9151:	25 25 25 25 25       	and    $0x25252525,%eax
    9156:	25 25 25 25 25       	and    $0x25252525,%eax
    915b:	25 25 25 25 25       	and    $0x25252525,%eax
    9160:	25 25 25 25 25       	and    $0x25252525,%eax
    9165:	25 25 25 25 25       	and    $0x25252525,%eax
    916a:	25 25 25 25 25       	and    $0x25252525,%eax
    916f:	25 25 25 25 25       	and    $0x25252525,%eax
    9174:	25 25 25 25 25       	and    $0x25252525,%eax
    9179:	25 25 25 25 25       	and    $0x25252525,%eax
    917e:	25 25 25 25 25       	and    $0x25252525,%eax
    9183:	25 25 25 25 25       	and    $0x25252525,%eax
    9188:	25 25 25 25 25       	and    $0x25252525,%eax
    918d:	25 25 25 25 25       	and    $0x25252525,%eax
    9192:	25 25 25 25 25       	and    $0x25252525,%eax
    9197:	25 25 25 25 25       	and    $0x25252525,%eax
    919c:	25 25 25 25 25       	and    $0x25252525,%eax
    91a1:	25 25 25 25 25       	and    $0x25252525,%eax
    91a6:	25 25 25 25 25       	and    $0x25252525,%eax
    91ab:	25 25 25 25 25       	and    $0x25252525,%eax
    91b0:	25 25 25 25 25       	and    $0x25252525,%eax
    91b5:	25 25 25 25 25       	and    $0x25252525,%eax
    91ba:	25 25 25 25 25       	and    $0x25252525,%eax
    91bf:	25 25 25 25 25       	and    $0x25252525,%eax
    91c4:	25 25 25 25 25       	and    $0x25252525,%eax
    91c9:	25 25 25 25 25       	and    $0x25252525,%eax
    91ce:	25 25 25 25 25       	and    $0x25252525,%eax
    91d3:	25 25 25 25 25       	and    $0x25252525,%eax
    91d8:	25 25 25 25 25       	and    $0x25252525,%eax
    91dd:	25 25 25 25 25       	and    $0x25252525,%eax
    91e2:	25 25 25 25 25       	and    $0x25252525,%eax
    91e7:	25 25 25 25 25       	and    $0x25252525,%eax
    91ec:	25 25 25 25 25       	and    $0x25252525,%eax
    91f1:	25 25 25 25 25       	and    $0x25252525,%eax
    91f6:	25 25 25 25 25       	and    $0x25252525,%eax
    91fb:	25 25 25 25 25       	and    $0x25252525,%eax
    9200:	25 25 25 25 25       	and    $0x25252525,%eax
    9205:	25 25 25 25 25       	and    $0x25252525,%eax
    920a:	25 25 25 25 25       	and    $0x25252525,%eax
    920f:	25 25 25 25 25       	and    $0x25252525,%eax
    9214:	25 25 25 25 25       	and    $0x25252525,%eax
    9219:	25 25 25 25 25       	and    $0x25252525,%eax
    921e:	25 25 25 25 25       	and    $0x25252525,%eax
    9223:	25 25 25 25 25       	and    $0x25252525,%eax
    9228:	25 25 25 25 25       	and    $0x25252525,%eax
    922d:	25 25 25 25 25       	and    $0x25252525,%eax
    9232:	25 25 25 25 25       	and    $0x25252525,%eax
    9237:	25 25 25 25 25       	and    $0x25252525,%eax
    923c:	25 25 25 25 25       	and    $0x25252525,%eax
    9241:	25 25 25 25 25       	and    $0x25252525,%eax
    9246:	25 25 25 25 25       	and    $0x25252525,%eax
    924b:	25 25 25 25 25       	and    $0x25252525,%eax
    9250:	25 25 25 25 25       	and    $0x25252525,%eax
    9255:	25 25 25 25 25       	and    $0x25252525,%eax
    925a:	25 25 25 25 25       	and    $0x25252525,%eax
    925f:	25 25 25 25 25       	and    $0x25252525,%eax
    9264:	25 25 25 25 25       	and    $0x25252525,%eax
    9269:	25 25 25 25 25       	and    $0x25252525,%eax
    926e:	25 25 25 25 25       	and    $0x25252525,%eax
    9273:	25 25 25 25 25       	and    $0x25252525,%eax
    9278:	25 25 25 25 25       	and    $0x25252525,%eax
    927d:	25 25 25 25 25       	and    $0x25252525,%eax
    9282:	25 25 25 25 25       	and    $0x25252525,%eax
    9287:	25 25 25 25 25       	and    $0x25252525,%eax
    928c:	25 25 25 25 25       	and    $0x25252525,%eax
    9291:	25 25 25 25 25       	and    $0x25252525,%eax
    9296:	25 25 25 25 25       	and    $0x25252525,%eax
    929b:	25 25 25 25 25       	and    $0x25252525,%eax
    92a0:	25 25 25 25 25       	and    $0x25252525,%eax
    92a5:	25 25 25 25 25       	and    $0x25252525,%eax
    92aa:	25 25 25 25 25       	and    $0x25252525,%eax
    92af:	25 25 25 25 25       	and    $0x25252525,%eax
    92b4:	25 25 25 25 25       	and    $0x25252525,%eax
    92b9:	25 25 25 25 25       	and    $0x25252525,%eax
    92be:	25 25 25 25 25       	and    $0x25252525,%eax
    92c3:	25 25 25 25 25       	and    $0x25252525,%eax
    92c8:	25 25 25 25 25       	and    $0x25252525,%eax
    92cd:	25 25 25 25 25       	and    $0x25252525,%eax
    92d2:	25 25 25 25 25       	and    $0x25252525,%eax
    92d7:	25 25 25 25 25       	and    $0x25252525,%eax
    92dc:	25 25 25 25 25       	and    $0x25252525,%eax
    92e1:	25 25 25 25 25       	and    $0x25252525,%eax
    92e6:	25 25 25 25 25       	and    $0x25252525,%eax
    92eb:	25 25 25 25 25       	and    $0x25252525,%eax
    92f0:	25 25 25 25 25       	and    $0x25252525,%eax
    92f5:	25 25 25 25 25       	and    $0x25252525,%eax
    92fa:	25 25 25 25 25       	and    $0x25252525,%eax
    92ff:	25 25 25 25 25       	and    $0x25252525,%eax
    9304:	25 25 25 25 25       	and    $0x25252525,%eax
    9309:	25 25 25 25 25       	and    $0x25252525,%eax
    930e:	25 25 25 25 25       	and    $0x25252525,%eax
    9313:	25 25 25 25 25       	and    $0x25252525,%eax
    9318:	25 25 25 25 25       	and    $0x25252525,%eax
    931d:	25 25 25 25 25       	and    $0x25252525,%eax
    9322:	25 25 25 25 25       	and    $0x25252525,%eax
    9327:	25 25 25 25 25       	and    $0x25252525,%eax
    932c:	25 25 25 25 25       	and    $0x25252525,%eax
    9331:	25 25 25 25 25       	and    $0x25252525,%eax
    9336:	25 25 25 25 25       	and    $0x25252525,%eax
    933b:	25 25 25 25 25       	and    $0x25252525,%eax
    9340:	25 25 25 25 25       	and    $0x25252525,%eax
    9345:	25 25 25 25 25       	and    $0x25252525,%eax
    934a:	25 25 25 25 25       	and    $0x25252525,%eax
    934f:	25 25 25 25 25       	and    $0x25252525,%eax
    9354:	25 25 25 25 25       	and    $0x25252525,%eax
    9359:	25 25 25 25 25       	and    $0x25252525,%eax
    935e:	25 25 25 25 25       	and    $0x25252525,%eax
    9363:	25 25 25 25 25       	and    $0x25252525,%eax
    9368:	25 25 25 25 25       	and    $0x25252525,%eax
    936d:	25 25 25 25 25       	and    $0x25252525,%eax
    9372:	25 25 25 25 25       	and    $0x25252525,%eax
    9377:	25 25 25 25 25       	and    $0x25252525,%eax
    937c:	25 25 25 25 25       	and    $0x25252525,%eax
    9381:	25 25 25 25 25       	and    $0x25252525,%eax
    9386:	25 25 25 25 25       	and    $0x25252525,%eax
    938b:	25 25 25 25 25       	and    $0x25252525,%eax
    9390:	25 25 25 25 25       	and    $0x25252525,%eax
    9395:	25 25 25 25 25       	and    $0x25252525,%eax
    939a:	25 25 25 25 25       	and    $0x25252525,%eax
    939f:	25 25 25 25 25       	and    $0x25252525,%eax
    93a4:	25 25 25 25 25       	and    $0x25252525,%eax
    93a9:	25 25 25 25 25       	and    $0x25252525,%eax
    93ae:	25 25 25 25 25       	and    $0x25252525,%eax
    93b3:	25 25 25 25 25       	and    $0x25252525,%eax
    93b8:	25 25 25 25 25       	and    $0x25252525,%eax
    93bd:	25 25 25 25 25       	and    $0x25252525,%eax
    93c2:	25 25 25 25 25       	and    $0x25252525,%eax
    93c7:	25 25 25 25 25       	and    $0x25252525,%eax
    93cc:	25 25 25 25 25       	and    $0x25252525,%eax
    93d1:	25 25 25 25 25       	and    $0x25252525,%eax
    93d6:	25 25 25 25 25       	and    $0x25252525,%eax
    93db:	25 25 25 25 25       	and    $0x25252525,%eax
    93e0:	25 25 25 25 25       	and    $0x25252525,%eax
    93e5:	25 25 25 25 25       	and    $0x25252525,%eax
    93ea:	25 25 25 25 25       	and    $0x25252525,%eax
    93ef:	25 25 25 25 25       	and    $0x25252525,%eax
    93f4:	25 25 25 25 25       	and    $0x25252525,%eax
    93f9:	25 25 25 25 25       	and    $0x25252525,%eax
    93fe:	25 25 25 25 25       	and    $0x25252525,%eax
    9403:	25 25 25 25 25       	and    $0x25252525,%eax
    9408:	25 25 25 25 25       	and    $0x25252525,%eax
    940d:	25 25 25 25 25       	and    $0x25252525,%eax
    9412:	25 25 25 25 25       	and    $0x25252525,%eax
    9417:	25 25 25 25 25       	and    $0x25252525,%eax
    941c:	25 25 25 25 25       	and    $0x25252525,%eax
    9421:	25 25 25 25 25       	and    $0x25252525,%eax
    9426:	25 25 25 25 25       	and    $0x25252525,%eax
    942b:	25 25 25 25 25       	and    $0x25252525,%eax
    9430:	25 25 25 25 25       	and    $0x25252525,%eax
    9435:	25 25 25 25 25       	and    $0x25252525,%eax
    943a:	25 25 25 25 25       	and    $0x25252525,%eax
    943f:	25 25 25 25 25       	and    $0x25252525,%eax
    9444:	25 25 25 25 25       	and    $0x25252525,%eax
    9449:	25 25 25 25 25       	and    $0x25252525,%eax
    944e:	25 25 25 25 25       	and    $0x25252525,%eax
    9453:	25 25 25 25 25       	and    $0x25252525,%eax
    9458:	25 25 25 25 25       	and    $0x25252525,%eax
    945d:	25 25 25 25 25       	and    $0x25252525,%eax
    9462:	25 25 25 25 25       	and    $0x25252525,%eax
    9467:	25 25 25 25 25       	and    $0x25252525,%eax
    946c:	25 25 25 25 25       	and    $0x25252525,%eax
    9471:	25 25 25 25 25       	and    $0x25252525,%eax
    9476:	25 25 25 25 25       	and    $0x25252525,%eax
    947b:	25 25 25 25 25       	and    $0x25252525,%eax
    9480:	25 25 25 25 25       	and    $0x25252525,%eax
    9485:	25 25 25 25 25       	and    $0x25252525,%eax
    948a:	25 25 25 25 25       	and    $0x25252525,%eax
    948f:	25 25 25 25 25       	and    $0x25252525,%eax
    9494:	25 25 25 25 25       	and    $0x25252525,%eax
    9499:	25 25 25 25 25       	and    $0x25252525,%eax
    949e:	25 25 25 25 25       	and    $0x25252525,%eax
    94a3:	25 25 25 25 25       	and    $0x25252525,%eax
    94a8:	25 25 25 25 25       	and    $0x25252525,%eax
    94ad:	25 25 25 25 25       	and    $0x25252525,%eax
    94b2:	25 25 25 25 25       	and    $0x25252525,%eax
    94b7:	25 25 25 25 25       	and    $0x25252525,%eax
    94bc:	25 25 25 25 25       	and    $0x25252525,%eax
    94c1:	25 25 25 25 25       	and    $0x25252525,%eax
    94c6:	25 25 25 25 25       	and    $0x25252525,%eax
    94cb:	25 25 25 25 25       	and    $0x25252525,%eax
    94d0:	25 25 25 25 25       	and    $0x25252525,%eax
    94d5:	25 25 25 25 25       	and    $0x25252525,%eax
    94da:	25 25 25 25 25       	and    $0x25252525,%eax
    94df:	25 25 25 25 25       	and    $0x25252525,%eax
    94e4:	25 25 25 25 25       	and    $0x25252525,%eax
    94e9:	25 25 25 25 25       	and    $0x25252525,%eax
    94ee:	25 25 25 25 25       	and    $0x25252525,%eax
    94f3:	25 25 25 25 25       	and    $0x25252525,%eax
    94f8:	25 25 25 25 25       	and    $0x25252525,%eax
    94fd:	25 25 25 25 25       	and    $0x25252525,%eax
    9502:	25 25 25 25 25       	and    $0x25252525,%eax
    9507:	25 25 25 25 25       	and    $0x25252525,%eax
    950c:	25 25 25 25 25       	and    $0x25252525,%eax
    9511:	25 25 25 25 25       	and    $0x25252525,%eax
    9516:	25 25 25 25 25       	and    $0x25252525,%eax
    951b:	25 25 25 25 25       	and    $0x25252525,%eax
    9520:	25 25 25 25 25       	and    $0x25252525,%eax
    9525:	25 25 25 25 25       	and    $0x25252525,%eax
    952a:	25 25 25 25 25       	and    $0x25252525,%eax
    952f:	25 25 25 25 25       	and    $0x25252525,%eax
    9534:	25 25 25 25 25       	and    $0x25252525,%eax
    9539:	25 25 25 25 25       	and    $0x25252525,%eax
    953e:	25 25 25 25 25       	and    $0x25252525,%eax
    9543:	25 25 25 25 25       	and    $0x25252525,%eax
    9548:	25 25 25 25 25       	and    $0x25252525,%eax
    954d:	25 25 25 25 25       	and    $0x25252525,%eax
    9552:	25 25 25 25 25       	and    $0x25252525,%eax
    9557:	25 25 25 25 25       	and    $0x25252525,%eax
    955c:	25 25 25 25 25       	and    $0x25252525,%eax
    9561:	25 25 25 25 25       	and    $0x25252525,%eax
    9566:	25 25 25 25 25       	and    $0x25252525,%eax
    956b:	25 25 25 25 25       	and    $0x25252525,%eax
    9570:	25 25 25 25 25       	and    $0x25252525,%eax
    9575:	25 25 25 25 25       	and    $0x25252525,%eax
    957a:	25 25 25 25 25       	and    $0x25252525,%eax
    957f:	25 25 25 25 25       	and    $0x25252525,%eax
    9584:	25 25 25 25 25       	and    $0x25252525,%eax
    9589:	25 25 25 25 25       	and    $0x25252525,%eax
    958e:	25 25 25 25 25       	and    $0x25252525,%eax
    9593:	25 25 25 25 25       	and    $0x25252525,%eax
    9598:	25 25 25 25 25       	and    $0x25252525,%eax
    959d:	25 25 25 25 25       	and    $0x25252525,%eax
    95a2:	25 25 25 25 25       	and    $0x25252525,%eax
    95a7:	25 25 25 25 25       	and    $0x25252525,%eax
    95ac:	25 25 25 25 25       	and    $0x25252525,%eax
    95b1:	25 25 25 25 25       	and    $0x25252525,%eax
    95b6:	25 25 25 25 25       	and    $0x25252525,%eax
    95bb:	25 25 25 25 25       	and    $0x25252525,%eax
    95c0:	25 25 25 25 25       	and    $0x25252525,%eax
    95c5:	25 25 25 25 25       	and    $0x25252525,%eax
    95ca:	25 25 25 25 25       	and    $0x25252525,%eax
    95cf:	25 25 25 25 25       	and    $0x25252525,%eax
    95d4:	25 25 25 25 25       	and    $0x25252525,%eax
    95d9:	25 25 25 25 25       	and    $0x25252525,%eax
    95de:	25 25 25 25 25       	and    $0x25252525,%eax
    95e3:	25 25 25 25 25       	and    $0x25252525,%eax
    95e8:	25 25 25 25 25       	and    $0x25252525,%eax
    95ed:	25 25 25 25 25       	and    $0x25252525,%eax
    95f2:	25 25 25 25 25       	and    $0x25252525,%eax
    95f7:	25 25 25 25 25       	and    $0x25252525,%eax
    95fc:	25 25 25 25 25       	and    $0x25252525,%eax
    9601:	25 25 25 25 25       	and    $0x25252525,%eax
    9606:	25 25 25 25 25       	and    $0x25252525,%eax
    960b:	25 25 25 25 25       	and    $0x25252525,%eax
    9610:	25 25 25 25 25       	and    $0x25252525,%eax
    9615:	25 25 25 25 25       	and    $0x25252525,%eax
    961a:	25 25 25 25 25       	and    $0x25252525,%eax
    961f:	25 25 25 25 25       	and    $0x25252525,%eax
    9624:	25 25 25 25 25       	and    $0x25252525,%eax
    9629:	25 25 25 25 25       	and    $0x25252525,%eax
    962e:	25 25 25 25 25       	and    $0x25252525,%eax
    9633:	25 25 25 25 25       	and    $0x25252525,%eax
    9638:	25 25 25 25 25       	and    $0x25252525,%eax
    963d:	25 25 25 25 25       	and    $0x25252525,%eax
    9642:	25 25 25 25 25       	and    $0x25252525,%eax
    9647:	25 25 25 25 25       	and    $0x25252525,%eax
    964c:	25 25 25 25 25       	and    $0x25252525,%eax
    9651:	25 25 25 25 25       	and    $0x25252525,%eax
    9656:	25 25 25 25 25       	and    $0x25252525,%eax
    965b:	25 25 25 25 25       	and    $0x25252525,%eax
    9660:	25 25 25 25 25       	and    $0x25252525,%eax
    9665:	25 25 25 25 25       	and    $0x25252525,%eax
    966a:	25 25 25 25 25       	and    $0x25252525,%eax
    966f:	25 25 25 25 25       	and    $0x25252525,%eax
    9674:	25 25 25 25 25       	and    $0x25252525,%eax
    9679:	25 25 25 25 25       	and    $0x25252525,%eax
    967e:	25 25 25 25 25       	and    $0x25252525,%eax
    9683:	25 25 25 25 25       	and    $0x25252525,%eax
    9688:	25 25 25 25 25       	and    $0x25252525,%eax
    968d:	25 25 25 25 25       	and    $0x25252525,%eax
    9692:	25 25 25 25 25       	and    $0x25252525,%eax
    9697:	25 25 25 25 25       	and    $0x25252525,%eax
    969c:	25 25 25 25 25       	and    $0x25252525,%eax
    96a1:	25 25 25 25 25       	and    $0x25252525,%eax
    96a6:	25 25 25 25 25       	and    $0x25252525,%eax
    96ab:	25 25 25 25 25       	and    $0x25252525,%eax
    96b0:	25 25 25 25 25       	and    $0x25252525,%eax
    96b5:	25 25 25 25 25       	and    $0x25252525,%eax
    96ba:	25 25 25 25 25       	and    $0x25252525,%eax
    96bf:	25 25 25 25 25       	and    $0x25252525,%eax
    96c4:	25 25 25 25 25       	and    $0x25252525,%eax
    96c9:	25 25 25 25 25       	and    $0x25252525,%eax
    96ce:	25 25 25 25 25       	and    $0x25252525,%eax
    96d3:	25 25 25 25 25       	and    $0x25252525,%eax
    96d8:	25 25 25 25 25       	and    $0x25252525,%eax
    96dd:	25 25 25 25 25       	and    $0x25252525,%eax
    96e2:	25 25 25 25 25       	and    $0x25252525,%eax
    96e7:	25 25 25 25 25       	and    $0x25252525,%eax
    96ec:	25 25 25 25 25       	and    $0x25252525,%eax
    96f1:	25 25 25 25 25       	and    $0x25252525,%eax
    96f6:	25 25 25 25 25       	and    $0x25252525,%eax
    96fb:	25 25 25 25 25       	and    $0x25252525,%eax
    9700:	25 25 25 25 25       	and    $0x25252525,%eax
    9705:	25 25 25 25 25       	and    $0x25252525,%eax
    970a:	25 25 25 25 25       	and    $0x25252525,%eax
    970f:	25 25 25 25 25       	and    $0x25252525,%eax
    9714:	25 25 25 25 25       	and    $0x25252525,%eax
    9719:	25 25 25 25 25       	and    $0x25252525,%eax
    971e:	25 25 25 25 25       	and    $0x25252525,%eax
    9723:	25 25 25 25 25       	and    $0x25252525,%eax
    9728:	25 25 25 25 25       	and    $0x25252525,%eax
    972d:	25 25 25 25 25       	and    $0x25252525,%eax
    9732:	25 25 25 25 25       	and    $0x25252525,%eax
    9737:	25 25 25 25 25       	and    $0x25252525,%eax
    973c:	25 25 25 25 25       	and    $0x25252525,%eax
    9741:	25 25 25 25 25       	and    $0x25252525,%eax
    9746:	25 25 25 25 25       	and    $0x25252525,%eax
    974b:	25 25 25 25 25       	and    $0x25252525,%eax
    9750:	25 25 25 25 25       	and    $0x25252525,%eax
    9755:	25 25 25 25 25       	and    $0x25252525,%eax
    975a:	25 25 25 25 25       	and    $0x25252525,%eax
    975f:	25 25 25 25 25       	and    $0x25252525,%eax
    9764:	25 25 25 25 25       	and    $0x25252525,%eax
    9769:	25 25 25 25 25       	and    $0x25252525,%eax
    976e:	25 25 25 25 25       	and    $0x25252525,%eax
    9773:	25 25 25 25 25       	and    $0x25252525,%eax
    9778:	25 25 25 25 25       	and    $0x25252525,%eax
    977d:	25 25 25 25 25       	and    $0x25252525,%eax
    9782:	25 25 25 25 25       	and    $0x25252525,%eax
    9787:	25 25 25 25 25       	and    $0x25252525,%eax
    978c:	25 25 25 25 25       	and    $0x25252525,%eax
    9791:	25 25 25 25 25       	and    $0x25252525,%eax
    9796:	25 25 25 25 25       	and    $0x25252525,%eax
    979b:	25 25 25 25 25       	and    $0x25252525,%eax
    97a0:	25 25 25 25 25       	and    $0x25252525,%eax
    97a5:	25 25 25 25 25       	and    $0x25252525,%eax
    97aa:	25 25 25 25 25       	and    $0x25252525,%eax
    97af:	25 25 25 25 25       	and    $0x25252525,%eax
    97b4:	25 25 25 25 25       	and    $0x25252525,%eax
    97b9:	25 25 25 25 25       	and    $0x25252525,%eax
    97be:	25 25 25 25 25       	and    $0x25252525,%eax
    97c3:	25 25 25 25 25       	and    $0x25252525,%eax
    97c8:	25 25 25 25 25       	and    $0x25252525,%eax
    97cd:	25 25 25 25 25       	and    $0x25252525,%eax
    97d2:	25 25 25 25 25       	and    $0x25252525,%eax
    97d7:	25 25 25 25 25       	and    $0x25252525,%eax
    97dc:	25 25 25 25 25       	and    $0x25252525,%eax
    97e1:	25 25 25 25 25       	and    $0x25252525,%eax
    97e6:	25 25 25 25 25       	and    $0x25252525,%eax
    97eb:	25 25 25 25 25       	and    $0x25252525,%eax
    97f0:	25 25 25 25 25       	and    $0x25252525,%eax
    97f5:	25 25 25 25 25       	and    $0x25252525,%eax
    97fa:	25 25 25 25 25       	and    $0x25252525,%eax
    97ff:	25 25 25 25 25       	and    $0x25252525,%eax
    9804:	25 25 25 25 25       	and    $0x25252525,%eax
    9809:	25 25 25 25 25       	and    $0x25252525,%eax
    980e:	25 25 25 25 25       	and    $0x25252525,%eax
    9813:	25 25 25 25 25       	and    $0x25252525,%eax
    9818:	25 25 25 25 25       	and    $0x25252525,%eax
    981d:	25 25 25 25 25       	and    $0x25252525,%eax
    9822:	25 25 25 25 25       	and    $0x25252525,%eax
    9827:	25 25 25 25 25       	and    $0x25252525,%eax
    982c:	25 25 25 25 25       	and    $0x25252525,%eax
    9831:	25 25 25 25 25       	and    $0x25252525,%eax
    9836:	25 25 25 25 25       	and    $0x25252525,%eax
    983b:	25 25 25 25 25       	and    $0x25252525,%eax
    9840:	25 25 25 25 25       	and    $0x25252525,%eax
    9845:	25 25 25 25 25       	and    $0x25252525,%eax
    984a:	25 25 25 25 25       	and    $0x25252525,%eax
    984f:	25 25 25 25 25       	and    $0x25252525,%eax
    9854:	25 25 25 25 25       	and    $0x25252525,%eax
    9859:	25 25 25 25 25       	and    $0x25252525,%eax
    985e:	25 25 25 25 25       	and    $0x25252525,%eax
    9863:	25 25 25 25 25       	and    $0x25252525,%eax
    9868:	25 25 25 25 25       	and    $0x25252525,%eax
    986d:	25 25 25 25 25       	and    $0x25252525,%eax
    9872:	25 25 25 25 25       	and    $0x25252525,%eax
    9877:	25 25 25 25 25       	and    $0x25252525,%eax
    987c:	25 25 25 25 25       	and    $0x25252525,%eax
    9881:	25 25 25 25 25       	and    $0x25252525,%eax
    9886:	25 25 25 25 25       	and    $0x25252525,%eax
    988b:	25 25 25 25 25       	and    $0x25252525,%eax
    9890:	25 25 25 25 25       	and    $0x25252525,%eax
    9895:	25 25 25 25 25       	and    $0x25252525,%eax
    989a:	25 25 25 25 25       	and    $0x25252525,%eax
    989f:	25 25 25 25 25       	and    $0x25252525,%eax
    98a4:	25 25 25 25 25       	and    $0x25252525,%eax
    98a9:	25 25 25 25 25       	and    $0x25252525,%eax
    98ae:	25 25 25 25 25       	and    $0x25252525,%eax
    98b3:	25 25 25 25 25       	and    $0x25252525,%eax
    98b8:	25 25 25 25 25       	and    $0x25252525,%eax
    98bd:	25 25 25 25 25       	and    $0x25252525,%eax
    98c2:	25 25 25 25 25       	and    $0x25252525,%eax
    98c7:	25 25 25 25 25       	and    $0x25252525,%eax
    98cc:	25 25 25 25 25       	and    $0x25252525,%eax
    98d1:	25 25 25 25 25       	and    $0x25252525,%eax
    98d6:	25 25 25 25 25       	and    $0x25252525,%eax
    98db:	25 25 25 25 25       	and    $0x25252525,%eax
    98e0:	25 25 25 25 25       	and    $0x25252525,%eax
    98e5:	25 25 25 25 25       	and    $0x25252525,%eax
    98ea:	25 25 25 25 25       	and    $0x25252525,%eax
    98ef:	25 25 25 25 25       	and    $0x25252525,%eax
    98f4:	25 25 25 25 25       	and    $0x25252525,%eax
    98f9:	25 25 25 25 25       	and    $0x25252525,%eax
    98fe:	25 25 25 25 25       	and    $0x25252525,%eax
    9903:	25 25 25 25 25       	and    $0x25252525,%eax
    9908:	25 25 25 25 25       	and    $0x25252525,%eax
    990d:	25 25 25 25 25       	and    $0x25252525,%eax
    9912:	25 25 25 25 25       	and    $0x25252525,%eax
    9917:	25 25 25 25 25       	and    $0x25252525,%eax
    991c:	25 25 25 25 25       	and    $0x25252525,%eax
    9921:	25 25 25 25 25       	and    $0x25252525,%eax
    9926:	25 25 25 25 25       	and    $0x25252525,%eax
    992b:	25 25 25 25 25       	and    $0x25252525,%eax
    9930:	25 25 25 25 25       	and    $0x25252525,%eax
    9935:	25 25 25 25 25       	and    $0x25252525,%eax
    993a:	25 25 25 25 25       	and    $0x25252525,%eax
    993f:	25 25 25 25 25       	and    $0x25252525,%eax
    9944:	25 25 25 25 25       	and    $0x25252525,%eax
    9949:	25 25 25 25 25       	and    $0x25252525,%eax
    994e:	25 25 25 25 25       	and    $0x25252525,%eax
    9953:	25 25 25 25 25       	and    $0x25252525,%eax
    9958:	25 25 25 25 25       	and    $0x25252525,%eax
    995d:	25 25 25 25 25       	and    $0x25252525,%eax
    9962:	25 25 25 25 25       	and    $0x25252525,%eax
    9967:	25 25 25 25 25       	and    $0x25252525,%eax
    996c:	25 25 25 25 25       	and    $0x25252525,%eax
    9971:	25 25 25 25 25       	and    $0x25252525,%eax
    9976:	25 25 25 25 25       	and    $0x25252525,%eax
    997b:	25 25 25 25 25       	and    $0x25252525,%eax
    9980:	25 25 25 25 25       	and    $0x25252525,%eax
    9985:	25 25 25 25 25       	and    $0x25252525,%eax
    998a:	25 25 25 25 25       	and    $0x25252525,%eax
    998f:	25 25 25 25 25       	and    $0x25252525,%eax
    9994:	25 25 25 25 25       	and    $0x25252525,%eax
    9999:	25 25 25 25 25       	and    $0x25252525,%eax
    999e:	25 25 25 25 25       	and    $0x25252525,%eax
    99a3:	25 25 25 25 25       	and    $0x25252525,%eax
    99a8:	25 25 25 25 25       	and    $0x25252525,%eax
    99ad:	25 25 25 25 25       	and    $0x25252525,%eax
    99b2:	25 25 25 25 25       	and    $0x25252525,%eax
    99b7:	25 25 25 25 25       	and    $0x25252525,%eax
    99bc:	25 25 25 25 25       	and    $0x25252525,%eax
    99c1:	25 25 25 25 25       	and    $0x25252525,%eax
    99c6:	25 25 25 25 25       	and    $0x25252525,%eax
    99cb:	25 25 25 25 25       	and    $0x25252525,%eax
    99d0:	25 25 25 25 25       	and    $0x25252525,%eax
    99d5:	25 25 25 25 25       	and    $0x25252525,%eax
    99da:	25 25 25 25 25       	and    $0x25252525,%eax
    99df:	25 25 25 25 25       	and    $0x25252525,%eax
    99e4:	25 25 25 25 25       	and    $0x25252525,%eax
    99e9:	25 25 25 25 25       	and    $0x25252525,%eax
    99ee:	25 25 25 25 25       	and    $0x25252525,%eax
    99f3:	25 25 25 25 25       	and    $0x25252525,%eax
    99f8:	25 25 25 25 25       	and    $0x25252525,%eax
    99fd:	25 25 25 25 25       	and    $0x25252525,%eax
    9a02:	25 25 25 25 25       	and    $0x25252525,%eax
    9a07:	25 25 25 25 25       	and    $0x25252525,%eax
    9a0c:	25 25 25 25 25       	and    $0x25252525,%eax
    9a11:	25 25 25 25 25       	and    $0x25252525,%eax
    9a16:	25 25 25 25 25       	and    $0x25252525,%eax
    9a1b:	25 25 25 25 25       	and    $0x25252525,%eax
    9a20:	25 25 25 25 25       	and    $0x25252525,%eax
    9a25:	25 25 25 25 25       	and    $0x25252525,%eax
    9a2a:	25 25 25 25 25       	and    $0x25252525,%eax
    9a2f:	25 25 25 25 25       	and    $0x25252525,%eax
    9a34:	25 25 25 25 25       	and    $0x25252525,%eax
    9a39:	25 25 25 25 25       	and    $0x25252525,%eax
    9a3e:	25 25 25 25 25       	and    $0x25252525,%eax
    9a43:	25 25 25 25 25       	and    $0x25252525,%eax
    9a48:	25 25 25 25 25       	and    $0x25252525,%eax
    9a4d:	25 25 25 25 25       	and    $0x25252525,%eax
    9a52:	25 25 25 25 25       	and    $0x25252525,%eax
    9a57:	25 25 25 25 25       	and    $0x25252525,%eax
    9a5c:	25 25 25 25 25       	and    $0x25252525,%eax
    9a61:	25 25 25 25 25       	and    $0x25252525,%eax
    9a66:	25 25 25 25 25       	and    $0x25252525,%eax
    9a6b:	25 25 25 25 25       	and    $0x25252525,%eax
    9a70:	25 25 25 25 25       	and    $0x25252525,%eax
    9a75:	25 25 25 25 25       	and    $0x25252525,%eax
    9a7a:	25 25 25 25 25       	and    $0x25252525,%eax
    9a7f:	25 25 25 25 25       	and    $0x25252525,%eax
    9a84:	25 25 25 25 25       	and    $0x25252525,%eax
    9a89:	25 25 25 25 25       	and    $0x25252525,%eax
    9a8e:	25 25 25 25 25       	and    $0x25252525,%eax
    9a93:	25 25 25 25 25       	and    $0x25252525,%eax
    9a98:	25 25 25 25 25       	and    $0x25252525,%eax
    9a9d:	25 25 25 25 25       	and    $0x25252525,%eax
    9aa2:	25 25 25 25 25       	and    $0x25252525,%eax
    9aa7:	25 25 25 25 25       	and    $0x25252525,%eax
    9aac:	25 25 25 25 25       	and    $0x25252525,%eax
    9ab1:	25 25 25 25 25       	and    $0x25252525,%eax
    9ab6:	25 25 25 25 25       	and    $0x25252525,%eax
    9abb:	25 25 25 25 25       	and    $0x25252525,%eax
    9ac0:	25 25 25 25 25       	and    $0x25252525,%eax
    9ac5:	25 25 25 25 25       	and    $0x25252525,%eax
    9aca:	25 25 25 25 25       	and    $0x25252525,%eax
    9acf:	25 25 25 25 25       	and    $0x25252525,%eax
    9ad4:	25 25 25 25 25       	and    $0x25252525,%eax
    9ad9:	25 25 25 25 25       	and    $0x25252525,%eax
    9ade:	25 25 25 25 25       	and    $0x25252525,%eax
    9ae3:	25 25 25 25 25       	and    $0x25252525,%eax
    9ae8:	25 25 25 25 25       	and    $0x25252525,%eax
    9aed:	25 25 25 25 25       	and    $0x25252525,%eax
    9af2:	25 25 25 25 25       	and    $0x25252525,%eax
    9af7:	25 25 25 25 25       	and    $0x25252525,%eax
    9afc:	25 25 25 25 25       	and    $0x25252525,%eax
    9b01:	25 25 25 25 25       	and    $0x25252525,%eax
    9b06:	25 25 25 25 25       	and    $0x25252525,%eax
    9b0b:	25 25 25 25 25       	and    $0x25252525,%eax
    9b10:	25 25 25 25 25       	and    $0x25252525,%eax
    9b15:	25 25 25 25 25       	and    $0x25252525,%eax
    9b1a:	25 25 25 25 25       	and    $0x25252525,%eax
    9b1f:	25 25 25 25 25       	and    $0x25252525,%eax
    9b24:	25 25 25 25 25       	and    $0x25252525,%eax
    9b29:	25 25 25 25 25       	and    $0x25252525,%eax
    9b2e:	25 25 25 25 25       	and    $0x25252525,%eax
    9b33:	25 25 25 25 25       	and    $0x25252525,%eax
    9b38:	25 25 25 25 25       	and    $0x25252525,%eax
    9b3d:	25 25 25 25 25       	and    $0x25252525,%eax
    9b42:	25 25 25 25 25       	and    $0x25252525,%eax
    9b47:	25 25 25 25 25       	and    $0x25252525,%eax
    9b4c:	25 25 25 25 25       	and    $0x25252525,%eax
    9b51:	25 25 25 25 25       	and    $0x25252525,%eax
    9b56:	25 25 25 25 25       	and    $0x25252525,%eax
    9b5b:	25 25 25 25 25       	and    $0x25252525,%eax
    9b60:	25 25 25 25 25       	and    $0x25252525,%eax
    9b65:	25 25 25 25 25       	and    $0x25252525,%eax
    9b6a:	25 25 25 25 25       	and    $0x25252525,%eax
    9b6f:	25 25 25 25 25       	and    $0x25252525,%eax
    9b74:	25 25 25 25 25       	and    $0x25252525,%eax
    9b79:	25 25 25 25 25       	and    $0x25252525,%eax
    9b7e:	25 25 25 25 25       	and    $0x25252525,%eax
    9b83:	25 25 25 25 25       	and    $0x25252525,%eax
    9b88:	25 25 25 25 25       	and    $0x25252525,%eax
    9b8d:	25 25 25 25 25       	and    $0x25252525,%eax
    9b92:	25 25 25 25 25       	and    $0x25252525,%eax
    9b97:	25 25 25 25 25       	and    $0x25252525,%eax
    9b9c:	25 25 25 25 25       	and    $0x25252525,%eax
    9ba1:	25 25 25 25 25       	and    $0x25252525,%eax
    9ba6:	25 25 25 25 25       	and    $0x25252525,%eax
    9bab:	25 25 25 25 25       	and    $0x25252525,%eax
    9bb0:	25 25 25 25 25       	and    $0x25252525,%eax
    9bb5:	25 25 25 25 25       	and    $0x25252525,%eax
    9bba:	25 25 25 25 25       	and    $0x25252525,%eax
    9bbf:	25 25 25 25 25       	and    $0x25252525,%eax
    9bc4:	25 25 25 25 25       	and    $0x25252525,%eax
    9bc9:	25 25 25 25 25       	and    $0x25252525,%eax
    9bce:	25 25 25 25 25       	and    $0x25252525,%eax
    9bd3:	25 25 25 25 25       	and    $0x25252525,%eax
    9bd8:	25 25 25 25 25       	and    $0x25252525,%eax
    9bdd:	25 25 25 25 25       	and    $0x25252525,%eax
    9be2:	25 25 25 25 25       	and    $0x25252525,%eax
    9be7:	25 25 25 25 25       	and    $0x25252525,%eax
    9bec:	25 25 25 25 25       	and    $0x25252525,%eax
    9bf1:	25 25 25 25 25       	and    $0x25252525,%eax
    9bf6:	25 25 25 25 25       	and    $0x25252525,%eax
    9bfb:	25 25 25 25 25       	and    $0x25252525,%eax
    9c00:	25 25 25 25 25       	and    $0x25252525,%eax
    9c05:	25 25 25 25 25       	and    $0x25252525,%eax
    9c0a:	25 25 25 25 25       	and    $0x25252525,%eax
    9c0f:	25 25 25 25 25       	and    $0x25252525,%eax
    9c14:	25 25 25 25 25       	and    $0x25252525,%eax
    9c19:	25 25 25 25 25       	and    $0x25252525,%eax
    9c1e:	25 25 25 25 25       	and    $0x25252525,%eax
    9c23:	25 25 25 25 25       	and    $0x25252525,%eax
    9c28:	25 25 25 25 25       	and    $0x25252525,%eax
    9c2d:	25 25 25 25 25       	and    $0x25252525,%eax
    9c32:	25 25 25 25 25       	and    $0x25252525,%eax
    9c37:	25 25 25 25 25       	and    $0x25252525,%eax
    9c3c:	25 25 25 25 25       	and    $0x25252525,%eax
    9c41:	25 25 25 25 25       	and    $0x25252525,%eax
    9c46:	25 25 25 25 25       	and    $0x25252525,%eax
    9c4b:	25 25 25 25 25       	and    $0x25252525,%eax
    9c50:	25 25 25 25 25       	and    $0x25252525,%eax
    9c55:	25 25 25 25 25       	and    $0x25252525,%eax
    9c5a:	25 25 25 25 25       	and    $0x25252525,%eax
    9c5f:	25 25 25 25 25       	and    $0x25252525,%eax
    9c64:	25 25 25 25 25       	and    $0x25252525,%eax
    9c69:	25 25 25 25 25       	and    $0x25252525,%eax
    9c6e:	25 25 25 25 25       	and    $0x25252525,%eax
    9c73:	25 25 25 25 25       	and    $0x25252525,%eax
    9c78:	25 25 25 25 25       	and    $0x25252525,%eax
    9c7d:	25 25 25 25 25       	and    $0x25252525,%eax
    9c82:	25 25 25 25 25       	and    $0x25252525,%eax
    9c87:	25 25 25 25 25       	and    $0x25252525,%eax
    9c8c:	25 25 25 25 25       	and    $0x25252525,%eax
    9c91:	25 25 25 25 25       	and    $0x25252525,%eax
    9c96:	25 25 25 25 25       	and    $0x25252525,%eax
    9c9b:	25 25 25 25 25       	and    $0x25252525,%eax
    9ca0:	25 25 25 25 25       	and    $0x25252525,%eax
    9ca5:	25 25 25 25 25       	and    $0x25252525,%eax
    9caa:	25 25 25 25 25       	and    $0x25252525,%eax
    9caf:	25 25 25 25 25       	and    $0x25252525,%eax
    9cb4:	25 25 25 25 25       	and    $0x25252525,%eax
    9cb9:	25 25 25 25 25       	and    $0x25252525,%eax
    9cbe:	25 25 25 25 25       	and    $0x25252525,%eax
    9cc3:	25 25 25 25 25       	and    $0x25252525,%eax
    9cc8:	25 25 25 25 25       	and    $0x25252525,%eax
    9ccd:	25 25 25 25 25       	and    $0x25252525,%eax
    9cd2:	25 25 25 25 25       	and    $0x25252525,%eax
    9cd7:	25 25 25 25 25       	and    $0x25252525,%eax
    9cdc:	25 25 25 25 25       	and    $0x25252525,%eax
    9ce1:	25 25 25 25 25       	and    $0x25252525,%eax
    9ce6:	25 25 25 25 25       	and    $0x25252525,%eax
    9ceb:	25 25 25 25 25       	and    $0x25252525,%eax
    9cf0:	25 25 25 25 25       	and    $0x25252525,%eax
    9cf5:	25 25 25 25 25       	and    $0x25252525,%eax
    9cfa:	25 25 25 25 25       	and    $0x25252525,%eax
    9cff:	25 25 25 25 25       	and    $0x25252525,%eax
    9d04:	25 25 25 25 25       	and    $0x25252525,%eax
    9d09:	25 25 25 25 25       	and    $0x25252525,%eax
    9d0e:	25 25 25 25 25       	and    $0x25252525,%eax
    9d13:	25 25 25 25 25       	and    $0x25252525,%eax
    9d18:	25 25 25 25 25       	and    $0x25252525,%eax
    9d1d:	25 25 25 25 25       	and    $0x25252525,%eax
    9d22:	25 25 25 25 25       	and    $0x25252525,%eax
    9d27:	25 25 25 25 25       	and    $0x25252525,%eax
    9d2c:	25 25 25 25 25       	and    $0x25252525,%eax
    9d31:	25 25 25 25 25       	and    $0x25252525,%eax
    9d36:	25 25 25 25 25       	and    $0x25252525,%eax
    9d3b:	25 25 25 25 25       	and    $0x25252525,%eax
    9d40:	25 25 25 25 25       	and    $0x25252525,%eax
    9d45:	25 25 25 25 25       	and    $0x25252525,%eax
    9d4a:	25 25 25 25 25       	and    $0x25252525,%eax
    9d4f:	25 25 25 25 25       	and    $0x25252525,%eax
    9d54:	25 25 25 25 25       	and    $0x25252525,%eax
    9d59:	25 25 25 25 25       	and    $0x25252525,%eax
    9d5e:	25 25 25 25 25       	and    $0x25252525,%eax
    9d63:	25 25 25 25 25       	and    $0x25252525,%eax
    9d68:	25 25 25 25 25       	and    $0x25252525,%eax
    9d6d:	25 25 25 25 25       	and    $0x25252525,%eax
    9d72:	25 25 25 25 25       	and    $0x25252525,%eax
    9d77:	25 25 25 25 25       	and    $0x25252525,%eax
    9d7c:	25 25 25 25 25       	and    $0x25252525,%eax
    9d81:	25 25 25 25 25       	and    $0x25252525,%eax
    9d86:	25 25 25 25 25       	and    $0x25252525,%eax
    9d8b:	25 25 25 25 25       	and    $0x25252525,%eax
    9d90:	25 25 25 25 25       	and    $0x25252525,%eax
    9d95:	25 25 25 25 25       	and    $0x25252525,%eax
    9d9a:	25 25 25 25 25       	and    $0x25252525,%eax
    9d9f:	25 25 25 25 25       	and    $0x25252525,%eax
    9da4:	25 25 25 25 25       	and    $0x25252525,%eax
    9da9:	25 25 25 25 25       	and    $0x25252525,%eax
    9dae:	25 25 25 25 25       	and    $0x25252525,%eax
    9db3:	25 25 25 25 25       	and    $0x25252525,%eax
    9db8:	25 25 25 25 25       	and    $0x25252525,%eax
    9dbd:	25 25 25 25 25       	and    $0x25252525,%eax
    9dc2:	25 25 25 25 25       	and    $0x25252525,%eax
    9dc7:	25 25 25 25 25       	and    $0x25252525,%eax
    9dcc:	25 25 25 25 25       	and    $0x25252525,%eax
    9dd1:	25 25 25 25 25       	and    $0x25252525,%eax
    9dd6:	25 25 25 25 25       	and    $0x25252525,%eax
    9ddb:	25 25 25 25 25       	and    $0x25252525,%eax
    9de0:	25 25 25 25 25       	and    $0x25252525,%eax
    9de5:	25 25 25 25 25       	and    $0x25252525,%eax
    9dea:	25 25 25 25 25       	and    $0x25252525,%eax
    9def:	25 25 25 25 25       	and    $0x25252525,%eax
    9df4:	25 25 25 25 25       	and    $0x25252525,%eax
    9df9:	25 25 25 25 25       	and    $0x25252525,%eax
    9dfe:	25 25 25 25 25       	and    $0x25252525,%eax
    9e03:	25 25 25 25 25       	and    $0x25252525,%eax
    9e08:	25 25 25 25 25       	and    $0x25252525,%eax
    9e0d:	25 25 25 25 25       	and    $0x25252525,%eax
    9e12:	25 25 25 25 25       	and    $0x25252525,%eax
    9e17:	25 25 25 25 25       	and    $0x25252525,%eax
    9e1c:	25 25 25 25 25       	and    $0x25252525,%eax
    9e21:	25 25 25 25 25       	and    $0x25252525,%eax
    9e26:	25 25 25 25 25       	and    $0x25252525,%eax
    9e2b:	25 25 25 25 25       	and    $0x25252525,%eax
    9e30:	25 25 25 25 25       	and    $0x25252525,%eax
    9e35:	25 25 25 25 25       	and    $0x25252525,%eax
    9e3a:	25 25 25 25 25       	and    $0x25252525,%eax
    9e3f:	25 25 25 25 25       	and    $0x25252525,%eax
    9e44:	25 25 25 25 25       	and    $0x25252525,%eax
    9e49:	25 25 25 25 25       	and    $0x25252525,%eax
    9e4e:	25 25 25 25 25       	and    $0x25252525,%eax
    9e53:	25 25 25 25 25       	and    $0x25252525,%eax
    9e58:	25 25 25 25 25       	and    $0x25252525,%eax
    9e5d:	25 25 25 25 25       	and    $0x25252525,%eax
    9e62:	25 25 25 25 25       	and    $0x25252525,%eax
    9e67:	25 25 25 25 25       	and    $0x25252525,%eax
    9e6c:	25 25 25 25 25       	and    $0x25252525,%eax
    9e71:	25 25 25 25 25       	and    $0x25252525,%eax
    9e76:	25 25 25 25 25       	and    $0x25252525,%eax
    9e7b:	25 25 25 25 25       	and    $0x25252525,%eax
    9e80:	25 25 25 25 25       	and    $0x25252525,%eax
    9e85:	25 25 25 25 25       	and    $0x25252525,%eax
    9e8a:	25 25 25 25 25       	and    $0x25252525,%eax
    9e8f:	25 25 25 25 25       	and    $0x25252525,%eax
    9e94:	25 25 25 25 25       	and    $0x25252525,%eax
    9e99:	25 25 25 25 25       	and    $0x25252525,%eax
    9e9e:	25 25 25 25 25       	and    $0x25252525,%eax
    9ea3:	25 25 25 25 25       	and    $0x25252525,%eax
    9ea8:	25 25 25 25 25       	and    $0x25252525,%eax
    9ead:	25 25 25 25 25       	and    $0x25252525,%eax
    9eb2:	25 25 25 25 25       	and    $0x25252525,%eax
    9eb7:	25 25 25 25 25       	and    $0x25252525,%eax
    9ebc:	25 25 25 25 25       	and    $0x25252525,%eax
    9ec1:	25 25 25 25 25       	and    $0x25252525,%eax
    9ec6:	25 25 25 25 25       	and    $0x25252525,%eax
    9ecb:	25 25 25 25 25       	and    $0x25252525,%eax
    9ed0:	25 25 25 25 25       	and    $0x25252525,%eax
    9ed5:	25 25 25 25 25       	and    $0x25252525,%eax
    9eda:	25 25 25 25 25       	and    $0x25252525,%eax
    9edf:	25 25 25 25 25       	and    $0x25252525,%eax
    9ee4:	25 25 25 25 25       	and    $0x25252525,%eax
    9ee9:	25 25 25 25 25       	and    $0x25252525,%eax
    9eee:	25 25 25 25 25       	and    $0x25252525,%eax
    9ef3:	25 25 25 25 25       	and    $0x25252525,%eax
    9ef8:	25 25 25 25 25       	and    $0x25252525,%eax
    9efd:	25 25 25 25 25       	and    $0x25252525,%eax
    9f02:	25 25 25 25 25       	and    $0x25252525,%eax
    9f07:	25 25 25 25 25       	and    $0x25252525,%eax
    9f0c:	25 25 25 25 25       	and    $0x25252525,%eax
    9f11:	25 25 25 25 25       	and    $0x25252525,%eax
    9f16:	25 25 25 25 25       	and    $0x25252525,%eax
    9f1b:	25 25 25 25 25       	and    $0x25252525,%eax
    9f20:	25 25 25 25 25       	and    $0x25252525,%eax
    9f25:	25 25 25 25 25       	and    $0x25252525,%eax
    9f2a:	25 25 25 25 25       	and    $0x25252525,%eax
    9f2f:	25 25 25 25 25       	and    $0x25252525,%eax
    9f34:	25 25 25 25 25       	and    $0x25252525,%eax
    9f39:	25 25 25 25 25       	and    $0x25252525,%eax
    9f3e:	25 25 25 25 25       	and    $0x25252525,%eax
    9f43:	25 25 25 25 25       	and    $0x25252525,%eax
    9f48:	25 25 25 25 25       	and    $0x25252525,%eax
    9f4d:	25 25 25 25 25       	and    $0x25252525,%eax
    9f52:	25 25 25 25 25       	and    $0x25252525,%eax
    9f57:	25 25 25 25 25       	and    $0x25252525,%eax
    9f5c:	25 25 25 25 25       	and    $0x25252525,%eax
    9f61:	25 25 25 25 25       	and    $0x25252525,%eax
    9f66:	25 25 25 25 25       	and    $0x25252525,%eax
    9f6b:	25 25 25 25 25       	and    $0x25252525,%eax
    9f70:	25 25 25 25 25       	and    $0x25252525,%eax
    9f75:	25 25 25 25 25       	and    $0x25252525,%eax
    9f7a:	25 25 25 25 25       	and    $0x25252525,%eax
    9f7f:	25 25 25 25 25       	and    $0x25252525,%eax
    9f84:	25 25 25 25 25       	and    $0x25252525,%eax
    9f89:	25 25 25 25 25       	and    $0x25252525,%eax
    9f8e:	25 25 25 25 25       	and    $0x25252525,%eax
    9f93:	25 25 25 25 25       	and    $0x25252525,%eax
    9f98:	25 25 25 25 25       	and    $0x25252525,%eax
    9f9d:	25 25 25 25 25       	and    $0x25252525,%eax
    9fa2:	25 25 25 25 25       	and    $0x25252525,%eax
    9fa7:	25 25 25 25 25       	and    $0x25252525,%eax
    9fac:	25 25 25 25 25       	and    $0x25252525,%eax
    9fb1:	25 25 25 25 25       	and    $0x25252525,%eax
    9fb6:	25 25 25 25 25       	and    $0x25252525,%eax
    9fbb:	25 25 25 25 25       	and    $0x25252525,%eax
    9fc0:	25 25 25 25 25       	and    $0x25252525,%eax
    9fc5:	25 25 25 25 25       	and    $0x25252525,%eax
    9fca:	25 25 25 25 25       	and    $0x25252525,%eax
    9fcf:	25 25 25 25 25       	and    $0x25252525,%eax
    9fd4:	25 25 25 25 25       	and    $0x25252525,%eax
    9fd9:	25 25 25 25 25       	and    $0x25252525,%eax
    9fde:	25 25 25 25 25       	and    $0x25252525,%eax
    9fe3:	25 25 25 25 25       	and    $0x25252525,%eax
    9fe8:	25 25 25 25 25       	and    $0x25252525,%eax
    9fed:	25 25 25 25 25       	and    $0x25252525,%eax
    9ff2:	25 25 25 25 25       	and    $0x25252525,%eax
    9ff7:	25 25 25 25 25       	and    $0x25252525,%eax
    9ffc:	25 25 25 25 25       	and    $0x25252525,%eax
    a001:	25 25 25 25 25       	and    $0x25252525,%eax
    a006:	25 25 25 25 25       	and    $0x25252525,%eax
    a00b:	25 25 25 25 25       	and    $0x25252525,%eax
    a010:	25 25 25 25 25       	and    $0x25252525,%eax
    a015:	25 25 25 25 25       	and    $0x25252525,%eax
    a01a:	25 25 25 25 25       	and    $0x25252525,%eax
    a01f:	25 25 25 25 25       	and    $0x25252525,%eax
    a024:	25 25 25 25 25       	and    $0x25252525,%eax
    a029:	25 25 25 25 25       	and    $0x25252525,%eax
    a02e:	25 25 25 25 25       	and    $0x25252525,%eax
    a033:	25 25 25 25 25       	and    $0x25252525,%eax
    a038:	25 25 25 25 25       	and    $0x25252525,%eax
    a03d:	25 25 25 25 25       	and    $0x25252525,%eax
    a042:	25 25 25 25 25       	and    $0x25252525,%eax
    a047:	25 25 25 25 25       	and    $0x25252525,%eax
    a04c:	25 25 25 25 25       	and    $0x25252525,%eax
    a051:	25 25 25 25 25       	and    $0x25252525,%eax
    a056:	25 25 25 25 25       	and    $0x25252525,%eax
    a05b:	25 25 25 25 25       	and    $0x25252525,%eax
    a060:	25 25 25 25 25       	and    $0x25252525,%eax
    a065:	25 25 25 25 25       	and    $0x25252525,%eax
    a06a:	25 25 25 25 25       	and    $0x25252525,%eax
    a06f:	25 25 25 25 25       	and    $0x25252525,%eax
    a074:	25 25 25 25 25       	and    $0x25252525,%eax
    a079:	25 25 25 25 25       	and    $0x25252525,%eax
    a07e:	25 25 25 25 25       	and    $0x25252525,%eax
    a083:	25 25 25 25 25       	and    $0x25252525,%eax
    a088:	25 25 25 25 25       	and    $0x25252525,%eax
    a08d:	25 25 25 25 25       	and    $0x25252525,%eax
    a092:	25 25 25 25 25       	and    $0x25252525,%eax
    a097:	25 25 25 25 25       	and    $0x25252525,%eax
    a09c:	25 25 25 25 25       	and    $0x25252525,%eax
    a0a1:	25 25 25 25 25       	and    $0x25252525,%eax
    a0a6:	25 25 25 25 25       	and    $0x25252525,%eax
    a0ab:	25 25 25 25 25       	and    $0x25252525,%eax
    a0b0:	25 25 25 25 25       	and    $0x25252525,%eax
    a0b5:	25 25 25 25 25       	and    $0x25252525,%eax
    a0ba:	25 25 25 25 25       	and    $0x25252525,%eax
    a0bf:	25 25 25 25 25       	and    $0x25252525,%eax
    a0c4:	25 25 25 25 25       	and    $0x25252525,%eax
    a0c9:	25 25 25 25 25       	and    $0x25252525,%eax
    a0ce:	25 25 25 25 25       	and    $0x25252525,%eax
    a0d3:	25 25 25 25 25       	and    $0x25252525,%eax
    a0d8:	25 25 25 25 25       	and    $0x25252525,%eax
    a0dd:	25 25 25 25 25       	and    $0x25252525,%eax
    a0e2:	25 25 25 25 25       	and    $0x25252525,%eax
    a0e7:	25 25 25 25 25       	and    $0x25252525,%eax
    a0ec:	25 25 25 25 25       	and    $0x25252525,%eax
    a0f1:	25 25 25 25 25       	and    $0x25252525,%eax
    a0f6:	25 25 25 25 25       	and    $0x25252525,%eax
    a0fb:	25 25 25 25 25       	and    $0x25252525,%eax
    a100:	25 25 25 25 25       	and    $0x25252525,%eax
    a105:	25 25 25 25 25       	and    $0x25252525,%eax
    a10a:	25 25 25 25 25       	and    $0x25252525,%eax
    a10f:	25 25 25 25 25       	and    $0x25252525,%eax
    a114:	25 25 25 25 25       	and    $0x25252525,%eax
    a119:	25 25 25 25 25       	and    $0x25252525,%eax
    a11e:	25 25 25 25 25       	and    $0x25252525,%eax
    a123:	25 25 25 25 25       	and    $0x25252525,%eax
    a128:	25 25 25 25 25       	and    $0x25252525,%eax
    a12d:	25 25 25 25 25       	and    $0x25252525,%eax
    a132:	25 25 25 25 25       	and    $0x25252525,%eax
    a137:	25 25 25 25 25       	and    $0x25252525,%eax
    a13c:	25 25 25 25 25       	and    $0x25252525,%eax
    a141:	25 25 25 25 25       	and    $0x25252525,%eax
    a146:	25 25 25 25 25       	and    $0x25252525,%eax
    a14b:	25 25 25 25 25       	and    $0x25252525,%eax
    a150:	25 25 25 25 25       	and    $0x25252525,%eax
    a155:	25 25 25 25 25       	and    $0x25252525,%eax
    a15a:	25 25 25 25 25       	and    $0x25252525,%eax
    a15f:	25 25 25 25 25       	and    $0x25252525,%eax
    a164:	25 25 25 25 25       	and    $0x25252525,%eax
    a169:	25 25 25 25 25       	and    $0x25252525,%eax
    a16e:	25 25 25 25 25       	and    $0x25252525,%eax
    a173:	25 25 25 25 25       	and    $0x25252525,%eax
    a178:	25 25 25 25 25       	and    $0x25252525,%eax
    a17d:	25 25 25 25 25       	and    $0x25252525,%eax
    a182:	25 25 25 25 25       	and    $0x25252525,%eax
    a187:	25 25 25 25 25       	and    $0x25252525,%eax
    a18c:	25 25 25 25 25       	and    $0x25252525,%eax
    a191:	25 25 25 25 25       	and    $0x25252525,%eax
    a196:	25 25 25 25 25       	and    $0x25252525,%eax
    a19b:	25 25 25 25 25       	and    $0x25252525,%eax
    a1a0:	25 25 25 25 25       	and    $0x25252525,%eax
    a1a5:	25 25 25 25 25       	and    $0x25252525,%eax
    a1aa:	25 25 25 25 25       	and    $0x25252525,%eax
    a1af:	25 25 25 25 25       	and    $0x25252525,%eax
    a1b4:	25 25 25 25 25       	and    $0x25252525,%eax
    a1b9:	25 25 25 25 25       	and    $0x25252525,%eax
    a1be:	25 25 25 25 25       	and    $0x25252525,%eax
    a1c3:	25 25 25 25 25       	and    $0x25252525,%eax
    a1c8:	25 25 25 25 25       	and    $0x25252525,%eax
    a1cd:	25 25 25 25 25       	and    $0x25252525,%eax
    a1d2:	25 25 25 25 25       	and    $0x25252525,%eax
    a1d7:	25 25 25 25 25       	and    $0x25252525,%eax
    a1dc:	25 25 25 25 25       	and    $0x25252525,%eax
    a1e1:	25 25 25 25 25       	and    $0x25252525,%eax
    a1e6:	25 25 25 25 25       	and    $0x25252525,%eax
    a1eb:	25 25 25 25 25       	and    $0x25252525,%eax
    a1f0:	25 25 25 25 25       	and    $0x25252525,%eax
    a1f5:	25 25 25 25 25       	and    $0x25252525,%eax
    a1fa:	25 25 25 25 25       	and    $0x25252525,%eax
    a1ff:	25 25 25 25 25       	and    $0x25252525,%eax
    a204:	25 25 25 25 25       	and    $0x25252525,%eax
    a209:	25 25 25 25 25       	and    $0x25252525,%eax
    a20e:	25 25 25 25 25       	and    $0x25252525,%eax
    a213:	25 25 25 25 25       	and    $0x25252525,%eax
    a218:	25 25 25 25 25       	and    $0x25252525,%eax
    a21d:	25 25 25 25 25       	and    $0x25252525,%eax
    a222:	25 25 25 25 25       	and    $0x25252525,%eax
    a227:	25 25 25 25 25       	and    $0x25252525,%eax
    a22c:	25 25 25 25 25       	and    $0x25252525,%eax
    a231:	25 25 25 25 25       	and    $0x25252525,%eax
    a236:	25 25 25 25 25       	and    $0x25252525,%eax
    a23b:	25 25 25 25 25       	and    $0x25252525,%eax
    a240:	25 25 25 25 25       	and    $0x25252525,%eax
    a245:	25 25 25 25 25       	and    $0x25252525,%eax
    a24a:	25 25 25 25 25       	and    $0x25252525,%eax
    a24f:	25 25 25 25 25       	and    $0x25252525,%eax
    a254:	25 25 25 25 25       	and    $0x25252525,%eax
    a259:	25 25 25 25 25       	and    $0x25252525,%eax
    a25e:	25 25 25 25 25       	and    $0x25252525,%eax
    a263:	25 25 25 25 25       	and    $0x25252525,%eax
    a268:	25 25 25 25 25       	and    $0x25252525,%eax
    a26d:	25 25 25 25 25       	and    $0x25252525,%eax
    a272:	25 25 25 25 25       	and    $0x25252525,%eax
    a277:	25 25 25 25 25       	and    $0x25252525,%eax
    a27c:	25 25 25 25 25       	and    $0x25252525,%eax
    a281:	25 25 25 25 25       	and    $0x25252525,%eax
    a286:	25 25 25 25 25       	and    $0x25252525,%eax
    a28b:	25 25 25 25 25       	and    $0x25252525,%eax
    a290:	25 25 25 25 25       	and    $0x25252525,%eax
    a295:	25 25 25 25 25       	and    $0x25252525,%eax
    a29a:	25 25 25 25 25       	and    $0x25252525,%eax
    a29f:	25 25 25 25 25       	and    $0x25252525,%eax
    a2a4:	25 25 25 25 25       	and    $0x25252525,%eax
    a2a9:	25 25 25 25 25       	and    $0x25252525,%eax
    a2ae:	25 25 25 25 25       	and    $0x25252525,%eax
    a2b3:	25 25 25 25 25       	and    $0x25252525,%eax
    a2b8:	25 25 25 25 25       	and    $0x25252525,%eax
    a2bd:	25 25 25 25 25       	and    $0x25252525,%eax
    a2c2:	25 25 25 25 25       	and    $0x25252525,%eax
    a2c7:	25 25 25 25 25       	and    $0x25252525,%eax
    a2cc:	25 25 25 25 25       	and    $0x25252525,%eax
    a2d1:	25 25 25 25 25       	and    $0x25252525,%eax
    a2d6:	25 25 25 25 25       	and    $0x25252525,%eax
    a2db:	25 25 25 25 25       	and    $0x25252525,%eax
    a2e0:	25 25 25 25 25       	and    $0x25252525,%eax
    a2e5:	25 25 25 25 25       	and    $0x25252525,%eax
    a2ea:	25 25 25 25 25       	and    $0x25252525,%eax
    a2ef:	25 25 25 25 25       	and    $0x25252525,%eax
    a2f4:	25 25 25 25 25       	and    $0x25252525,%eax
    a2f9:	25 25 25 25 25       	and    $0x25252525,%eax
    a2fe:	25 25 25 25 25       	and    $0x25252525,%eax
    a303:	25 25 25 25 25       	and    $0x25252525,%eax
    a308:	25 25 25 25 25       	and    $0x25252525,%eax
    a30d:	25 25 25 25 25       	and    $0x25252525,%eax
    a312:	25 25 25 25 25       	and    $0x25252525,%eax
    a317:	25 25 25 25 25       	and    $0x25252525,%eax
    a31c:	25 25 25 25 25       	and    $0x25252525,%eax
    a321:	25 25 25 25 25       	and    $0x25252525,%eax
    a326:	25 25 25 25 25       	and    $0x25252525,%eax
    a32b:	25 25 25 25 25       	and    $0x25252525,%eax
    a330:	25 25 25 25 25       	and    $0x25252525,%eax
    a335:	25 25 25 25 25       	and    $0x25252525,%eax
    a33a:	25 25 25 25 25       	and    $0x25252525,%eax
    a33f:	25 25 25 25 25       	and    $0x25252525,%eax
    a344:	25 25 25 25 25       	and    $0x25252525,%eax
    a349:	25 25 25 25 25       	and    $0x25252525,%eax
    a34e:	25 25 25 25 25       	and    $0x25252525,%eax
    a353:	25 25 25 25 25       	and    $0x25252525,%eax
    a358:	25 25 25 25 25       	and    $0x25252525,%eax
    a35d:	25 25 25 25 25       	and    $0x25252525,%eax
    a362:	25 25 25 25 25       	and    $0x25252525,%eax
    a367:	25 25 25 25 25       	and    $0x25252525,%eax
    a36c:	25 25 25 25 25       	and    $0x25252525,%eax
    a371:	25 25 25 25 25       	and    $0x25252525,%eax
    a376:	25 25 25 25 25       	and    $0x25252525,%eax
    a37b:	25 25 25 25 25       	and    $0x25252525,%eax
    a380:	25 25 25 25 25       	and    $0x25252525,%eax
    a385:	25 25 25 25 25       	and    $0x25252525,%eax
    a38a:	25 25 25 25 25       	and    $0x25252525,%eax
    a38f:	25 25 25 25 25       	and    $0x25252525,%eax
    a394:	25 25 25 25 25       	and    $0x25252525,%eax
    a399:	25 25 25 25 25       	and    $0x25252525,%eax
    a39e:	25 25 25 25 25       	and    $0x25252525,%eax
    a3a3:	25 25 25 25 25       	and    $0x25252525,%eax
    a3a8:	25 25 25 25 25       	and    $0x25252525,%eax
    a3ad:	25 25 25 25 25       	and    $0x25252525,%eax
    a3b2:	25 25 25 25 25       	and    $0x25252525,%eax
    a3b7:	25 25 25 25 25       	and    $0x25252525,%eax
    a3bc:	25 25 25 25 25       	and    $0x25252525,%eax
    a3c1:	25 25 25 25 25       	and    $0x25252525,%eax
    a3c6:	25 25 25 25 25       	and    $0x25252525,%eax
    a3cb:	25 25 25 25 25       	and    $0x25252525,%eax
    a3d0:	25 25 25 25 25       	and    $0x25252525,%eax
    a3d5:	25 25 25 25 25       	and    $0x25252525,%eax
    a3da:	25 25 25 25 25       	and    $0x25252525,%eax
    a3df:	25 25 25 25 25       	and    $0x25252525,%eax
    a3e4:	25 25 25 25 25       	and    $0x25252525,%eax
    a3e9:	25 25 25 25 25       	and    $0x25252525,%eax
    a3ee:	25 25 25 25 25       	and    $0x25252525,%eax
    a3f3:	25 25 25 25 25       	and    $0x25252525,%eax
    a3f8:	25 25 25 25 25       	and    $0x25252525,%eax
    a3fd:	25 25 25 25 25       	and    $0x25252525,%eax
    a402:	25 25 25 25 25       	and    $0x25252525,%eax
    a407:	25 25 25 25 25       	and    $0x25252525,%eax
    a40c:	25 25 25 25 25       	and    $0x25252525,%eax
    a411:	25 25 25 25 25       	and    $0x25252525,%eax
    a416:	25 25 25 25 25       	and    $0x25252525,%eax
    a41b:	25 25 25 25 25       	and    $0x25252525,%eax
    a420:	25 25 25 25 25       	and    $0x25252525,%eax
    a425:	25 25 25 25 25       	and    $0x25252525,%eax
    a42a:	25 25 25 25 25       	and    $0x25252525,%eax
    a42f:	25 25 25 25 25       	and    $0x25252525,%eax
    a434:	25 25 25 25 25       	and    $0x25252525,%eax
    a439:	25 25 25 25 25       	and    $0x25252525,%eax
    a43e:	25 25 25 25 25       	and    $0x25252525,%eax
    a443:	25 25 25 25 25       	and    $0x25252525,%eax
    a448:	25 25 25 25 25       	and    $0x25252525,%eax
    a44d:	25 25 25 25 25       	and    $0x25252525,%eax
    a452:	25 25 25 25 25       	and    $0x25252525,%eax
    a457:	25 25 25 25 25       	and    $0x25252525,%eax
    a45c:	25 25 25 25 25       	and    $0x25252525,%eax
    a461:	25 25 25 25 25       	and    $0x25252525,%eax
    a466:	25 25 25 25 25       	and    $0x25252525,%eax
    a46b:	25 25 25 25 25       	and    $0x25252525,%eax
    a470:	25 25 25 25 25       	and    $0x25252525,%eax
    a475:	25 25 25 25 25       	and    $0x25252525,%eax
    a47a:	25 25 25 25 25       	and    $0x25252525,%eax
    a47f:	25 25 25 25 25       	and    $0x25252525,%eax
    a484:	25 25 25 25 25       	and    $0x25252525,%eax
    a489:	25 25 25 25 25       	and    $0x25252525,%eax
    a48e:	25 25 25 25 25       	and    $0x25252525,%eax
    a493:	25 25 25 25 25       	and    $0x25252525,%eax
    a498:	25 25 25 25 25       	and    $0x25252525,%eax
    a49d:	25 25 25 25 25       	and    $0x25252525,%eax
    a4a2:	25 25 25 25 25       	and    $0x25252525,%eax
    a4a7:	25 25 25 25 25       	and    $0x25252525,%eax
    a4ac:	25 25 25 25 25       	and    $0x25252525,%eax
    a4b1:	25 25 25 25 25       	and    $0x25252525,%eax
    a4b6:	25 25 25 25 25       	and    $0x25252525,%eax
    a4bb:	25 25 25 25 25       	and    $0x25252525,%eax
    a4c0:	25 25 25 25 25       	and    $0x25252525,%eax
    a4c5:	25 25 25 25 25       	and    $0x25252525,%eax
    a4ca:	25 25 25 25 25       	and    $0x25252525,%eax
    a4cf:	25 25 25 25 25       	and    $0x25252525,%eax
    a4d4:	25 25 25 25 25       	and    $0x25252525,%eax
    a4d9:	25 25 25 25 25       	and    $0x25252525,%eax
    a4de:	25 25 25 25 25       	and    $0x25252525,%eax
    a4e3:	25 25 25 25 25       	and    $0x25252525,%eax
    a4e8:	25 25 25 25 25       	and    $0x25252525,%eax
    a4ed:	25 25 25 25 25       	and    $0x25252525,%eax
    a4f2:	25 25 25 25 25       	and    $0x25252525,%eax
    a4f7:	25 25 25 25 25       	and    $0x25252525,%eax
    a4fc:	25 25 25 25 25       	and    $0x25252525,%eax
    a501:	25 25 25 25 25       	and    $0x25252525,%eax
    a506:	25 25 25 25 25       	and    $0x25252525,%eax
    a50b:	25 25 25 25 25       	and    $0x25252525,%eax
    a510:	25 25 25 25 25       	and    $0x25252525,%eax
    a515:	25 25 25 25 25       	and    $0x25252525,%eax
    a51a:	25 25 25 25 25       	and    $0x25252525,%eax
    a51f:	25 25 25 25 25       	and    $0x25252525,%eax
    a524:	25 25 25 25 25       	and    $0x25252525,%eax
    a529:	25 25 25 25 25       	and    $0x25252525,%eax
    a52e:	25 25 25 25 25       	and    $0x25252525,%eax
    a533:	25 25 25 25 25       	and    $0x25252525,%eax
    a538:	25 25 25 25 25       	and    $0x25252525,%eax
    a53d:	25 25 25 25 25       	and    $0x25252525,%eax
    a542:	25 25 25 25 25       	and    $0x25252525,%eax
    a547:	25 25 25 25 25       	and    $0x25252525,%eax
    a54c:	25 25 25 25 25       	and    $0x25252525,%eax
    a551:	25 25 25 25 25       	and    $0x25252525,%eax
    a556:	25 25 25 25 25       	and    $0x25252525,%eax
    a55b:	25 25 25 25 25       	and    $0x25252525,%eax
    a560:	25 25 25 25 25       	and    $0x25252525,%eax
    a565:	25 25 25 25 25       	and    $0x25252525,%eax
    a56a:	25 25 25 25 25       	and    $0x25252525,%eax
    a56f:	25 25 25 25 25       	and    $0x25252525,%eax
    a574:	25 25 25 25 25       	and    $0x25252525,%eax
    a579:	25 25 25 25 25       	and    $0x25252525,%eax
    a57e:	25 25 25 25 25       	and    $0x25252525,%eax
    a583:	25 25 25 25 25       	and    $0x25252525,%eax
    a588:	25 25 25 25 25       	and    $0x25252525,%eax
    a58d:	25 25 25 25 25       	and    $0x25252525,%eax
    a592:	25 25 25 25 25       	and    $0x25252525,%eax
    a597:	25 25 25 25 25       	and    $0x25252525,%eax
    a59c:	25 25 25 25 25       	and    $0x25252525,%eax
    a5a1:	25 25 25 25 25       	and    $0x25252525,%eax
    a5a6:	25 25 25 25 25       	and    $0x25252525,%eax
    a5ab:	25 25 25 25 25       	and    $0x25252525,%eax
    a5b0:	25 25 25 25 25       	and    $0x25252525,%eax
    a5b5:	25 25 25 25 25       	and    $0x25252525,%eax
    a5ba:	25 25 25 25 25       	and    $0x25252525,%eax
    a5bf:	25 25 25 25 25       	and    $0x25252525,%eax
    a5c4:	25 25 25 25 25       	and    $0x25252525,%eax
    a5c9:	25 25 25 25 25       	and    $0x25252525,%eax
    a5ce:	25 25 25 25 25       	and    $0x25252525,%eax
    a5d3:	25 25 25 25 25       	and    $0x25252525,%eax
    a5d8:	25 25 25 25 25       	and    $0x25252525,%eax
    a5dd:	25 25 25 25 25       	and    $0x25252525,%eax
    a5e2:	25 25 25 25 25       	and    $0x25252525,%eax
    a5e7:	25 25 25 25 25       	and    $0x25252525,%eax
    a5ec:	25 25 25 25 25       	and    $0x25252525,%eax
    a5f1:	25 25 25 25 25       	and    $0x25252525,%eax
    a5f6:	25 25 25 25 25       	and    $0x25252525,%eax
    a5fb:	25 25 25 25 25       	and    $0x25252525,%eax
    a600:	25 25 25 25 25       	and    $0x25252525,%eax
    a605:	25 25 25 25 25       	and    $0x25252525,%eax
    a60a:	25 25 25 25 25       	and    $0x25252525,%eax
    a60f:	25 25 25 25 25       	and    $0x25252525,%eax
    a614:	25 25 25 25 25       	and    $0x25252525,%eax
    a619:	25 25 25 25 25       	and    $0x25252525,%eax
    a61e:	25 25 25 25 25       	and    $0x25252525,%eax
    a623:	25 25 25 25 25       	and    $0x25252525,%eax
    a628:	25 25 25 25 25       	and    $0x25252525,%eax
    a62d:	25 25 25 25 25       	and    $0x25252525,%eax
    a632:	25 25 25 25 25       	and    $0x25252525,%eax
    a637:	25 25 25 25 25       	and    $0x25252525,%eax
    a63c:	25 25 25 25 25       	and    $0x25252525,%eax
    a641:	25 25 25 25 25       	and    $0x25252525,%eax
    a646:	25 25 25 25 25       	and    $0x25252525,%eax
    a64b:	25 25 25 25 25       	and    $0x25252525,%eax
    a650:	25 25 25 25 25       	and    $0x25252525,%eax
    a655:	25 25 25 25 25       	and    $0x25252525,%eax
    a65a:	25 25 25 25 25       	and    $0x25252525,%eax
    a65f:	25 25 25 25 25       	and    $0x25252525,%eax
    a664:	25 25 25 25 25       	and    $0x25252525,%eax
    a669:	25 25 25 25 25       	and    $0x25252525,%eax
    a66e:	25 25 25 25 25       	and    $0x25252525,%eax
    a673:	25 25 25 25 25       	and    $0x25252525,%eax
    a678:	25 25 25 25 25       	and    $0x25252525,%eax
    a67d:	25 25 25 25 25       	and    $0x25252525,%eax
    a682:	25 25 25 25 25       	and    $0x25252525,%eax
    a687:	25 25 25 25 25       	and    $0x25252525,%eax
    a68c:	25 25 25 25 25       	and    $0x25252525,%eax
    a691:	25 25 25 25 25       	and    $0x25252525,%eax
    a696:	25 25 25 25 25       	and    $0x25252525,%eax
    a69b:	25 25 25 25 25       	and    $0x25252525,%eax
    a6a0:	25 25 25 25 25       	and    $0x25252525,%eax
    a6a5:	25 25 25 25 25       	and    $0x25252525,%eax
    a6aa:	25 25 25 25 25       	and    $0x25252525,%eax
    a6af:	25 25 25 25 25       	and    $0x25252525,%eax
    a6b4:	25 25 25 25 25       	and    $0x25252525,%eax
    a6b9:	25 25 25 25 25       	and    $0x25252525,%eax
    a6be:	25 25 25 25 25       	and    $0x25252525,%eax
    a6c3:	25 25 25 25 25       	and    $0x25252525,%eax
    a6c8:	25 25 25 25 25       	and    $0x25252525,%eax
    a6cd:	25 25 25 25 25       	and    $0x25252525,%eax
    a6d2:	25 25 25 25 25       	and    $0x25252525,%eax
    a6d7:	25 25 25 25 25       	and    $0x25252525,%eax
    a6dc:	25 25 25 25 25       	and    $0x25252525,%eax
    a6e1:	25 25 25 25 25       	and    $0x25252525,%eax
    a6e6:	25 25 25 25 25       	and    $0x25252525,%eax
    a6eb:	25 25 25 25 25       	and    $0x25252525,%eax
    a6f0:	25 25 25 25 25       	and    $0x25252525,%eax
    a6f5:	25 25 25 25 25       	and    $0x25252525,%eax
    a6fa:	25 25 25 25 25       	and    $0x25252525,%eax
    a6ff:	25 25 25 25 25       	and    $0x25252525,%eax
    a704:	25 25 25 25 25       	and    $0x25252525,%eax
    a709:	25 25 25 25 25       	and    $0x25252525,%eax
    a70e:	25 25 25 25 25       	and    $0x25252525,%eax
    a713:	25 25 25 25 25       	and    $0x25252525,%eax
    a718:	25 25 25 25 25       	and    $0x25252525,%eax
    a71d:	25 25 25 25 25       	and    $0x25252525,%eax
    a722:	25 25 25 25 25       	and    $0x25252525,%eax
    a727:	25 25 25 25 25       	and    $0x25252525,%eax
    a72c:	25 25 25 25 25       	and    $0x25252525,%eax
    a731:	25 25 25 25 25       	and    $0x25252525,%eax
    a736:	25 25 25 25 25       	and    $0x25252525,%eax
    a73b:	25 25 25 25 25       	and    $0x25252525,%eax
    a740:	25 25 25 25 25       	and    $0x25252525,%eax
    a745:	25 25 25 25 25       	and    $0x25252525,%eax
    a74a:	25 25 25 25 25       	and    $0x25252525,%eax
    a74f:	25 25 25 25 25       	and    $0x25252525,%eax
    a754:	25 25 25 25 25       	and    $0x25252525,%eax
    a759:	25 25 25 25 25       	and    $0x25252525,%eax
    a75e:	25 25 25 25 25       	and    $0x25252525,%eax
    a763:	25 25 25 25 25       	and    $0x25252525,%eax
    a768:	25 25 25 25 25       	and    $0x25252525,%eax
    a76d:	25 25 25 25 25       	and    $0x25252525,%eax
    a772:	25 25 25 25 25       	and    $0x25252525,%eax
    a777:	25 25 25 25 25       	and    $0x25252525,%eax
    a77c:	25 25 25 25 25       	and    $0x25252525,%eax
    a781:	25 25 25 25 25       	and    $0x25252525,%eax
    a786:	25 25 25 25 25       	and    $0x25252525,%eax
    a78b:	25 25 25 25 25       	and    $0x25252525,%eax
    a790:	25 25 25 25 25       	and    $0x25252525,%eax
    a795:	25 25 25 25 25       	and    $0x25252525,%eax
    a79a:	25 25 25 25 25       	and    $0x25252525,%eax
    a79f:	25 25 25 25 25       	and    $0x25252525,%eax
    a7a4:	25 25 25 25 25       	and    $0x25252525,%eax
    a7a9:	25 25 25 25 25       	and    $0x25252525,%eax
    a7ae:	25 25 25 25 25       	and    $0x25252525,%eax
    a7b3:	25 25 25 25 25       	and    $0x25252525,%eax
    a7b8:	25 25 25 25 25       	and    $0x25252525,%eax
    a7bd:	25 25 25 25 25       	and    $0x25252525,%eax
    a7c2:	25 25 25 25 25       	and    $0x25252525,%eax
    a7c7:	25 25 25 25 25       	and    $0x25252525,%eax
    a7cc:	25 25 25 25 25       	and    $0x25252525,%eax
    a7d1:	25 25 25 25 25       	and    $0x25252525,%eax
    a7d6:	25 25 25 25 25       	and    $0x25252525,%eax
    a7db:	25 25 25 25 25       	and    $0x25252525,%eax
    a7e0:	25 25 25 25 25       	and    $0x25252525,%eax
    a7e5:	25 25 25 25 25       	and    $0x25252525,%eax
    a7ea:	25 25 25 25 25       	and    $0x25252525,%eax
    a7ef:	25 25 25 25 25       	and    $0x25252525,%eax
    a7f4:	25 25 25 25 25       	and    $0x25252525,%eax
    a7f9:	25 25 25 25 25       	and    $0x25252525,%eax
    a7fe:	25 25 25 25 25       	and    $0x25252525,%eax
    a803:	25 25 25 25 25       	and    $0x25252525,%eax
    a808:	25 25 25 25 25       	and    $0x25252525,%eax
    a80d:	25 25 25 25 25       	and    $0x25252525,%eax
    a812:	25 25 25 25 25       	and    $0x25252525,%eax
    a817:	25 25 25 25 25       	and    $0x25252525,%eax
    a81c:	25 25 25 25 25       	and    $0x25252525,%eax
    a821:	25 25 25 25 25       	and    $0x25252525,%eax
    a826:	25 25 25 25 25       	and    $0x25252525,%eax
    a82b:	25 25 25 25 25       	and    $0x25252525,%eax
    a830:	25 25 25 25 25       	and    $0x25252525,%eax
    a835:	25 25 25 25 25       	and    $0x25252525,%eax
    a83a:	25 25 25 25 25       	and    $0x25252525,%eax
    a83f:	25 25 25 25 25       	and    $0x25252525,%eax
    a844:	25 25 25 25 25       	and    $0x25252525,%eax
    a849:	25 25 25 25 25       	and    $0x25252525,%eax
    a84e:	25 25 25 25 25       	and    $0x25252525,%eax
    a853:	25 25 25 25 25       	and    $0x25252525,%eax
    a858:	25 25 25 25 25       	and    $0x25252525,%eax
    a85d:	25 25 25 25 25       	and    $0x25252525,%eax
    a862:	25 25 25 25 25       	and    $0x25252525,%eax
    a867:	25 25 25 25 25       	and    $0x25252525,%eax
    a86c:	25 25 25 25 25       	and    $0x25252525,%eax
    a871:	25 25 25 25 25       	and    $0x25252525,%eax
    a876:	25 25 25 25 25       	and    $0x25252525,%eax
    a87b:	25 25 25 25 25       	and    $0x25252525,%eax
    a880:	25 25 25 25 25       	and    $0x25252525,%eax
    a885:	25 25 25 25 25       	and    $0x25252525,%eax
    a88a:	25 25 25 25 25       	and    $0x25252525,%eax
    a88f:	25 25 25 25 25       	and    $0x25252525,%eax
    a894:	25 25 25 25 25       	and    $0x25252525,%eax
    a899:	25 25 25 25 25       	and    $0x25252525,%eax
    a89e:	25 25 25 25 25       	and    $0x25252525,%eax
    a8a3:	25 25 25 25 25       	and    $0x25252525,%eax
    a8a8:	25 25 25 25 25       	and    $0x25252525,%eax
    a8ad:	25 25 25 25 25       	and    $0x25252525,%eax
    a8b2:	25 25 25 25 25       	and    $0x25252525,%eax
    a8b7:	25 25 25 25 25       	and    $0x25252525,%eax
    a8bc:	25 25 25 25 25       	and    $0x25252525,%eax
    a8c1:	25 25 25 25 25       	and    $0x25252525,%eax
    a8c6:	25 25 25 25 25       	and    $0x25252525,%eax
    a8cb:	25 25 25 25 25       	and    $0x25252525,%eax
    a8d0:	25 25 25 25 25       	and    $0x25252525,%eax
    a8d5:	25 25 25 25 25       	and    $0x25252525,%eax
    a8da:	25 25 25 25 25       	and    $0x25252525,%eax
    a8df:	25 25 25 25 25       	and    $0x25252525,%eax
    a8e4:	25 25 25 25 25       	and    $0x25252525,%eax
    a8e9:	25 25 25 25 25       	and    $0x25252525,%eax
    a8ee:	25 25 25 25 25       	and    $0x25252525,%eax
    a8f3:	25 25 25 25 25       	and    $0x25252525,%eax
    a8f8:	25 25 25 25 25       	and    $0x25252525,%eax
    a8fd:	25 25 25 25 25       	and    $0x25252525,%eax
    a902:	25 25 25 25 25       	and    $0x25252525,%eax
    a907:	25 25 25 25 25       	and    $0x25252525,%eax
    a90c:	25 25 25 25 25       	and    $0x25252525,%eax
    a911:	25 25 25 25 25       	and    $0x25252525,%eax
    a916:	25 25 25 25 25       	and    $0x25252525,%eax
    a91b:	25 25 25 25 25       	and    $0x25252525,%eax
    a920:	25 25 25 25 25       	and    $0x25252525,%eax
    a925:	25 25 25 25 25       	and    $0x25252525,%eax
    a92a:	25 25 25 25 25       	and    $0x25252525,%eax
    a92f:	25 25 25 25 25       	and    $0x25252525,%eax
    a934:	25 25 25 25 25       	and    $0x25252525,%eax
    a939:	25 25 25 25 25       	and    $0x25252525,%eax
    a93e:	25 25 25 25 25       	and    $0x25252525,%eax
    a943:	25 25 25 25 25       	and    $0x25252525,%eax
    a948:	25 25 25 25 25       	and    $0x25252525,%eax
    a94d:	25 25 25 25 25       	and    $0x25252525,%eax
    a952:	25 25 25 25 25       	and    $0x25252525,%eax
    a957:	25 25 25 25 25       	and    $0x25252525,%eax
    a95c:	25 25 25 25 25       	and    $0x25252525,%eax
    a961:	25 25 25 25 25       	and    $0x25252525,%eax
    a966:	25 25 25 25 25       	and    $0x25252525,%eax
    a96b:	25 25 25 25 25       	and    $0x25252525,%eax
    a970:	25 25 25 25 25       	and    $0x25252525,%eax
    a975:	25 25 25 25 25       	and    $0x25252525,%eax
    a97a:	25 25 25 25 25       	and    $0x25252525,%eax
    a97f:	25 25 25 25 25       	and    $0x25252525,%eax
    a984:	25 25 25 25 25       	and    $0x25252525,%eax
    a989:	25 25 25 25 25       	and    $0x25252525,%eax
    a98e:	25 25 25 25 25       	and    $0x25252525,%eax
    a993:	25 25 25 25 25       	and    $0x25252525,%eax
    a998:	25 25 25 25 25       	and    $0x25252525,%eax
    a99d:	25 25 25 25 25       	and    $0x25252525,%eax
    a9a2:	25 25 25 25 25       	and    $0x25252525,%eax
    a9a7:	25 25 25 25 25       	and    $0x25252525,%eax
    a9ac:	25 25 25 25 25       	and    $0x25252525,%eax
    a9b1:	25 25 25 25 25       	and    $0x25252525,%eax
    a9b6:	25 25 25 25 25       	and    $0x25252525,%eax
    a9bb:	25 25 25 25 25       	and    $0x25252525,%eax
    a9c0:	25 25 25 25 25       	and    $0x25252525,%eax
    a9c5:	25 25 25 25 25       	and    $0x25252525,%eax
    a9ca:	25 25 25 25 25       	and    $0x25252525,%eax
    a9cf:	25 25 25 25 25       	and    $0x25252525,%eax
    a9d4:	25 25 25 25 25       	and    $0x25252525,%eax
    a9d9:	25 25 25 25 25       	and    $0x25252525,%eax
    a9de:	25 25 25 25 25       	and    $0x25252525,%eax
    a9e3:	25 25 25 25 25       	and    $0x25252525,%eax
    a9e8:	25 25 25 25 25       	and    $0x25252525,%eax
    a9ed:	25 25 25 25 25       	and    $0x25252525,%eax
    a9f2:	25 25 25 25 25       	and    $0x25252525,%eax
    a9f7:	25 25 25 25 25       	and    $0x25252525,%eax
    a9fc:	25 25 25 25 25       	and    $0x25252525,%eax
    aa01:	25 25 25 25 25       	and    $0x25252525,%eax
    aa06:	25 25 25 25 25       	and    $0x25252525,%eax
    aa0b:	25 25 25 25 25       	and    $0x25252525,%eax
    aa10:	25 25 25 25 25       	and    $0x25252525,%eax
    aa15:	25 25 25 25 25       	and    $0x25252525,%eax
    aa1a:	25 25 25 25 25       	and    $0x25252525,%eax
    aa1f:	25 25 25 25 25       	and    $0x25252525,%eax
    aa24:	25 25 25 25 25       	and    $0x25252525,%eax
    aa29:	25 25 25 25 25       	and    $0x25252525,%eax
    aa2e:	25 25 25 25 25       	and    $0x25252525,%eax
    aa33:	25 25 25 25 25       	and    $0x25252525,%eax
    aa38:	25 25 25 25 25       	and    $0x25252525,%eax
    aa3d:	25 25 25 25 25       	and    $0x25252525,%eax
    aa42:	25 25 25 25 25       	and    $0x25252525,%eax
    aa47:	25 25 25 25 25       	and    $0x25252525,%eax
    aa4c:	25 25 25 25 25       	and    $0x25252525,%eax
    aa51:	25 25 25 25 25       	and    $0x25252525,%eax
    aa56:	25 25 25 25 25       	and    $0x25252525,%eax
    aa5b:	25 25 25 25 25       	and    $0x25252525,%eax
    aa60:	25 25 25 25 25       	and    $0x25252525,%eax
    aa65:	25 25 25 25 25       	and    $0x25252525,%eax
    aa6a:	25 25 25 25 25       	and    $0x25252525,%eax
    aa6f:	25 25 25 25 25       	and    $0x25252525,%eax
    aa74:	25 25 25 25 25       	and    $0x25252525,%eax
    aa79:	25 25 25 25 25       	and    $0x25252525,%eax
    aa7e:	25 25 25 25 25       	and    $0x25252525,%eax
    aa83:	25 25 25 25 25       	and    $0x25252525,%eax
    aa88:	25 25 25 25 25       	and    $0x25252525,%eax
    aa8d:	25 25 25 25 25       	and    $0x25252525,%eax
    aa92:	25 25 25 25 25       	and    $0x25252525,%eax
    aa97:	25 25 25 25 25       	and    $0x25252525,%eax
    aa9c:	25 25 25 25 25       	and    $0x25252525,%eax
    aaa1:	25 25 25 25 25       	and    $0x25252525,%eax
    aaa6:	25 25 25 25 25       	and    $0x25252525,%eax
    aaab:	25 25 25 25 25       	and    $0x25252525,%eax
    aab0:	25 25 25 25 25       	and    $0x25252525,%eax
    aab5:	25 25 25 25 25       	and    $0x25252525,%eax
    aaba:	25 25 25 25 25       	and    $0x25252525,%eax
    aabf:	25 25 25 25 25       	and    $0x25252525,%eax
    aac4:	25 25 25 25 25       	and    $0x25252525,%eax
    aac9:	25 25 25 25 25       	and    $0x25252525,%eax
    aace:	25 25 25 25 25       	and    $0x25252525,%eax
    aad3:	25 25 25 25 25       	and    $0x25252525,%eax
    aad8:	25 25 25 25 25       	and    $0x25252525,%eax
    aadd:	25 25 25 25 25       	and    $0x25252525,%eax
    aae2:	25 25 25 25 25       	and    $0x25252525,%eax
    aae7:	25 25 25 25 25       	and    $0x25252525,%eax
    aaec:	25 25 25 25 25       	and    $0x25252525,%eax
    aaf1:	25 25 25 25 25       	and    $0x25252525,%eax
    aaf6:	25 25 25 25 25       	and    $0x25252525,%eax
    aafb:	25 25 25 25 25       	and    $0x25252525,%eax
    ab00:	25 25 25 25 25       	and    $0x25252525,%eax
    ab05:	25 25 25 25 25       	and    $0x25252525,%eax
    ab0a:	25 25 25 25 25       	and    $0x25252525,%eax
    ab0f:	25 25 25 25 25       	and    $0x25252525,%eax
    ab14:	25 25 25 25 25       	and    $0x25252525,%eax
    ab19:	25 25 25 25 25       	and    $0x25252525,%eax
    ab1e:	25 25 25 25 25       	and    $0x25252525,%eax
    ab23:	25 25 25 25 25       	and    $0x25252525,%eax
    ab28:	25 25 25 25 25       	and    $0x25252525,%eax
    ab2d:	25 25 25 25 25       	and    $0x25252525,%eax
    ab32:	25 25 25 25 25       	and    $0x25252525,%eax
    ab37:	25 25 25 25 25       	and    $0x25252525,%eax
    ab3c:	25 25 25 25 25       	and    $0x25252525,%eax
    ab41:	25 25 25 25 25       	and    $0x25252525,%eax
    ab46:	25 25 25 25 25       	and    $0x25252525,%eax
    ab4b:	25 25 25 25 25       	and    $0x25252525,%eax
    ab50:	25 25 25 25 25       	and    $0x25252525,%eax
    ab55:	25 25 25 25 25       	and    $0x25252525,%eax
    ab5a:	25 25 25 25 25       	and    $0x25252525,%eax
    ab5f:	25 25 25 25 25       	and    $0x25252525,%eax
    ab64:	25 25 25 25 25       	and    $0x25252525,%eax
    ab69:	25 25 25 25 25       	and    $0x25252525,%eax
    ab6e:	25 25 25 25 25       	and    $0x25252525,%eax
    ab73:	25 25 25 25 25       	and    $0x25252525,%eax
    ab78:	25 25 25 25 25       	and    $0x25252525,%eax
    ab7d:	25 25 25 25 25       	and    $0x25252525,%eax
    ab82:	25 25 25 25 25       	and    $0x25252525,%eax
    ab87:	25 25 25 25 25       	and    $0x25252525,%eax
    ab8c:	25 25 25 25 25       	and    $0x25252525,%eax
    ab91:	25 25 25 25 25       	and    $0x25252525,%eax
    ab96:	25 25 25 25 25       	and    $0x25252525,%eax
    ab9b:	25 25 25 25 25       	and    $0x25252525,%eax
    aba0:	25 25 25 25 25       	and    $0x25252525,%eax
    aba5:	25 25 25 25 25       	and    $0x25252525,%eax
    abaa:	25 25 25 25 25       	and    $0x25252525,%eax
    abaf:	25 25 25 25 25       	and    $0x25252525,%eax
    abb4:	25 25 25 25 25       	and    $0x25252525,%eax
    abb9:	25 25 25 25 25       	and    $0x25252525,%eax
    abbe:	25 25 25 25 25       	and    $0x25252525,%eax
    abc3:	25 25 25 25 25       	and    $0x25252525,%eax
    abc8:	25 25 25 25 25       	and    $0x25252525,%eax
    abcd:	25 25 25 25 25       	and    $0x25252525,%eax
    abd2:	25 25 25 25 25       	and    $0x25252525,%eax
    abd7:	25 25 25 25 25       	and    $0x25252525,%eax
    abdc:	25 25 25 25 25       	and    $0x25252525,%eax
    abe1:	25 25 25 25 25       	and    $0x25252525,%eax
    abe6:	25 25 25 25 25       	and    $0x25252525,%eax
    abeb:	25 25 25 25 25       	and    $0x25252525,%eax
    abf0:	25 25 25 25 25       	and    $0x25252525,%eax
    abf5:	25 25 25 25 25       	and    $0x25252525,%eax
    abfa:	25 25 25 25 25       	and    $0x25252525,%eax
    abff:	25 25 25 25 25       	and    $0x25252525,%eax
    ac04:	25 25 25 25 25       	and    $0x25252525,%eax
    ac09:	25 25 25 25 25       	and    $0x25252525,%eax
    ac0e:	25 25 25 25 25       	and    $0x25252525,%eax
    ac13:	25 25 25 25 25       	and    $0x25252525,%eax
    ac18:	25 25 25 25 25       	and    $0x25252525,%eax
    ac1d:	25 25 25 25 25       	and    $0x25252525,%eax
    ac22:	25 25 25 25 25       	and    $0x25252525,%eax
    ac27:	25 25 25 25 25       	and    $0x25252525,%eax
    ac2c:	25 25 25 25 25       	and    $0x25252525,%eax
    ac31:	25 25 25 25 25       	and    $0x25252525,%eax
    ac36:	25 25 25 25 25       	and    $0x25252525,%eax
    ac3b:	25 25 25 25 25       	and    $0x25252525,%eax
    ac40:	25 25 25 25 25       	and    $0x25252525,%eax
    ac45:	25 25 25 25 25       	and    $0x25252525,%eax
    ac4a:	25 25 25 25 25       	and    $0x25252525,%eax
    ac4f:	25 25 25 25 25       	and    $0x25252525,%eax
    ac54:	25 25 25 25 25       	and    $0x25252525,%eax
    ac59:	25 25 25 25 25       	and    $0x25252525,%eax
    ac5e:	25 25 25 25 25       	and    $0x25252525,%eax
    ac63:	25 25 25 25 25       	and    $0x25252525,%eax
    ac68:	25 25 25 25 25       	and    $0x25252525,%eax
    ac6d:	25 25 25 25 25       	and    $0x25252525,%eax
    ac72:	25 25 25 25 25       	and    $0x25252525,%eax
    ac77:	25 25 25 25 25       	and    $0x25252525,%eax
    ac7c:	25 25 25 25 25       	and    $0x25252525,%eax
    ac81:	25 25 25 25 25       	and    $0x25252525,%eax
    ac86:	25 25 25 25 25       	and    $0x25252525,%eax
    ac8b:	25 25 25 25 25       	and    $0x25252525,%eax
    ac90:	25 25 25 25 25       	and    $0x25252525,%eax
    ac95:	25 25 25 25 25       	and    $0x25252525,%eax
    ac9a:	25 25 25 25 25       	and    $0x25252525,%eax
    ac9f:	25 25 25 25 25       	and    $0x25252525,%eax
    aca4:	25 25 25 25 25       	and    $0x25252525,%eax
    aca9:	25 25 25 25 25       	and    $0x25252525,%eax
    acae:	25 25 25 25 25       	and    $0x25252525,%eax
    acb3:	25 25 25 25 25       	and    $0x25252525,%eax
    acb8:	25 25 25 25 25       	and    $0x25252525,%eax
    acbd:	25 25 25 25 25       	and    $0x25252525,%eax
    acc2:	25 25 25 25 25       	and    $0x25252525,%eax
    acc7:	25 25 25 25 25       	and    $0x25252525,%eax
    accc:	25 25 25 25 25       	and    $0x25252525,%eax
    acd1:	25 25 25 25 25       	and    $0x25252525,%eax
    acd6:	25 25 25 25 25       	and    $0x25252525,%eax
    acdb:	25 25 25 25 25       	and    $0x25252525,%eax
    ace0:	25 25 25 25 25       	and    $0x25252525,%eax
    ace5:	25 25 25 25 25       	and    $0x25252525,%eax
    acea:	25 25 25 25 25       	and    $0x25252525,%eax
    acef:	25 25 25 25 25       	and    $0x25252525,%eax
    acf4:	25 25 25 25 25       	and    $0x25252525,%eax
    acf9:	25 25 25 25 25       	and    $0x25252525,%eax
    acfe:	25 25 25 25 25       	and    $0x25252525,%eax
    ad03:	25 25 25 25 25       	and    $0x25252525,%eax
    ad08:	25 25 25 25 25       	and    $0x25252525,%eax
    ad0d:	25 25 25 25 25       	and    $0x25252525,%eax
    ad12:	25 25 25 25 25       	and    $0x25252525,%eax
    ad17:	25 25 25 25 25       	and    $0x25252525,%eax
    ad1c:	25 25 25 25 25       	and    $0x25252525,%eax
    ad21:	25 25 25 25 25       	and    $0x25252525,%eax
    ad26:	25 25 25 25 25       	and    $0x25252525,%eax
    ad2b:	25 25 25 25 25       	and    $0x25252525,%eax
    ad30:	25 25 25 25 25       	and    $0x25252525,%eax
    ad35:	25 25 25 25 25       	and    $0x25252525,%eax
    ad3a:	25 25 25 25 25       	and    $0x25252525,%eax
    ad3f:	25 25 25 25 25       	and    $0x25252525,%eax
    ad44:	25 25 25 25 25       	and    $0x25252525,%eax
    ad49:	25 25 25 25 25       	and    $0x25252525,%eax
    ad4e:	25 25 25 25 25       	and    $0x25252525,%eax
    ad53:	25 25 25 25 25       	and    $0x25252525,%eax
    ad58:	25 25 25 25 25       	and    $0x25252525,%eax
    ad5d:	25 25 25 25 25       	and    $0x25252525,%eax
    ad62:	25 25 25 25 25       	and    $0x25252525,%eax
    ad67:	25 25 25 25 25       	and    $0x25252525,%eax
    ad6c:	25 25 25 25 25       	and    $0x25252525,%eax
    ad71:	25 25 25 25 25       	and    $0x25252525,%eax
    ad76:	25 25 25 25 25       	and    $0x25252525,%eax
    ad7b:	25 25 25 25 25       	and    $0x25252525,%eax
    ad80:	25 25 25 25 25       	and    $0x25252525,%eax
    ad85:	25 25 25 25 25       	and    $0x25252525,%eax
    ad8a:	25 25 25 25 25       	and    $0x25252525,%eax
    ad8f:	25 25 25 25 25       	and    $0x25252525,%eax
    ad94:	25 25 25 25 25       	and    $0x25252525,%eax
    ad99:	25 25 25 25 25       	and    $0x25252525,%eax
    ad9e:	25 25 25 25 25       	and    $0x25252525,%eax
    ada3:	25 25 25 25 25       	and    $0x25252525,%eax
    ada8:	25 25 25 25 25       	and    $0x25252525,%eax
    adad:	25 25 25 25 25       	and    $0x25252525,%eax
    adb2:	25 25 25 25 25       	and    $0x25252525,%eax
    adb7:	25 25 25 25 25       	and    $0x25252525,%eax
    adbc:	25 25 25 25 25       	and    $0x25252525,%eax
    adc1:	25 25 25 25 25       	and    $0x25252525,%eax
    adc6:	25 25 25 25 25       	and    $0x25252525,%eax
    adcb:	25 25 25 25 25       	and    $0x25252525,%eax
    add0:	25 25 25 25 25       	and    $0x25252525,%eax
    add5:	25 25 25 25 25       	and    $0x25252525,%eax
    adda:	25 25 25 25 25       	and    $0x25252525,%eax
    addf:	25 25 25 25 25       	and    $0x25252525,%eax
    ade4:	25 25 25 25 25       	and    $0x25252525,%eax
    ade9:	25 25 25 25 25       	and    $0x25252525,%eax
    adee:	25 25 25 25 25       	and    $0x25252525,%eax
    adf3:	25 25 25 25 25       	and    $0x25252525,%eax
    adf8:	25 25 25 25 25       	and    $0x25252525,%eax
    adfd:	25 25 25 25 25       	and    $0x25252525,%eax
    ae02:	25 25 25 25 25       	and    $0x25252525,%eax
    ae07:	25 25 25 25 25       	and    $0x25252525,%eax
    ae0c:	25 25 25 25 25       	and    $0x25252525,%eax
    ae11:	25 25 25 25 25       	and    $0x25252525,%eax
    ae16:	25 25 25 25 25       	and    $0x25252525,%eax
    ae1b:	25 25 25 25 25       	and    $0x25252525,%eax
    ae20:	25 25 25 25 25       	and    $0x25252525,%eax
    ae25:	25 25 25 25 25       	and    $0x25252525,%eax
    ae2a:	25 25 25 25 25       	and    $0x25252525,%eax
    ae2f:	25 25 25 25 25       	and    $0x25252525,%eax
    ae34:	25 25 25 25 25       	and    $0x25252525,%eax
    ae39:	25 25 25 25 25       	and    $0x25252525,%eax
    ae3e:	25 25 25 25 25       	and    $0x25252525,%eax
    ae43:	25 25 25 25 25       	and    $0x25252525,%eax
    ae48:	25 25 25 25 25       	and    $0x25252525,%eax
    ae4d:	25 25 25 25 25       	and    $0x25252525,%eax
    ae52:	25 25 25 25 25       	and    $0x25252525,%eax
    ae57:	25 25 25 25 25       	and    $0x25252525,%eax
    ae5c:	25 25 25 25 25       	and    $0x25252525,%eax
    ae61:	25 25 25 25 25       	and    $0x25252525,%eax
    ae66:	25 25 25 25 25       	and    $0x25252525,%eax
    ae6b:	25 25 25 25 25       	and    $0x25252525,%eax
    ae70:	25 25 25 25 25       	and    $0x25252525,%eax
    ae75:	25 25 25 25 25       	and    $0x25252525,%eax
    ae7a:	25 25 25 25 25       	and    $0x25252525,%eax
    ae7f:	25 25 25 25 25       	and    $0x25252525,%eax
    ae84:	25 25 25 25 25       	and    $0x25252525,%eax
    ae89:	25 25 25 25 25       	and    $0x25252525,%eax
    ae8e:	25 25 25 25 25       	and    $0x25252525,%eax
    ae93:	25 25 25 25 25       	and    $0x25252525,%eax
    ae98:	25 25 25 25 25       	and    $0x25252525,%eax
    ae9d:	25 25 25 25 25       	and    $0x25252525,%eax
    aea2:	25 25 25 25 25       	and    $0x25252525,%eax
    aea7:	25 25 25 25 25       	and    $0x25252525,%eax
    aeac:	25 25 25 25 25       	and    $0x25252525,%eax
    aeb1:	25 25 25 25 25       	and    $0x25252525,%eax
    aeb6:	25 25 25 25 25       	and    $0x25252525,%eax
    aebb:	25 25 25 25 25       	and    $0x25252525,%eax
    aec0:	25 25 25 25 25       	and    $0x25252525,%eax
    aec5:	25 25 25 25 25       	and    $0x25252525,%eax
    aeca:	25 25 25 25 25       	and    $0x25252525,%eax
    aecf:	25 25 25 25 25       	and    $0x25252525,%eax
    aed4:	25 25 25 25 25       	and    $0x25252525,%eax
    aed9:	25 25 25 25 25       	and    $0x25252525,%eax
    aede:	25 25 25 25 25       	and    $0x25252525,%eax
    aee3:	25 25 25 25 25       	and    $0x25252525,%eax
    aee8:	25 25 25 25 25       	and    $0x25252525,%eax
    aeed:	25 25 25 25 25       	and    $0x25252525,%eax
    aef2:	25 25 25 25 25       	and    $0x25252525,%eax
    aef7:	25 25 25 25 25       	and    $0x25252525,%eax
    aefc:	25 25 25 25 25       	and    $0x25252525,%eax
    af01:	25 25 25 25 25       	and    $0x25252525,%eax
    af06:	25 25 25 25 25       	and    $0x25252525,%eax
    af0b:	25 25 25 25 25       	and    $0x25252525,%eax
    af10:	25 25 25 25 25       	and    $0x25252525,%eax
    af15:	25 25 25 25 25       	and    $0x25252525,%eax
    af1a:	25 25 25 25 25       	and    $0x25252525,%eax
    af1f:	25 25 25 25 25       	and    $0x25252525,%eax
    af24:	25 25 25 25 25       	and    $0x25252525,%eax
    af29:	25 25 25 25 25       	and    $0x25252525,%eax
    af2e:	25 25 25 25 25       	and    $0x25252525,%eax
    af33:	25 25 25 25 25       	and    $0x25252525,%eax
    af38:	25 25 25 25 25       	and    $0x25252525,%eax
    af3d:	25 25 25 25 25       	and    $0x25252525,%eax
    af42:	25 25 25 25 25       	and    $0x25252525,%eax
    af47:	25 25 25 25 25       	and    $0x25252525,%eax
    af4c:	25 25 25 25 25       	and    $0x25252525,%eax
    af51:	25 25 25 25 25       	and    $0x25252525,%eax
    af56:	25 25 25 25 25       	and    $0x25252525,%eax
    af5b:	25 25 25 25 25       	and    $0x25252525,%eax
    af60:	25 25 25 25 25       	and    $0x25252525,%eax
    af65:	25 25 25 25 25       	and    $0x25252525,%eax
    af6a:	25 25 25 25 25       	and    $0x25252525,%eax
    af6f:	25 25 25 25 25       	and    $0x25252525,%eax
    af74:	25 25 25 25 25       	and    $0x25252525,%eax
    af79:	25 25 25 25 25       	and    $0x25252525,%eax
    af7e:	25 25 25 25 25       	and    $0x25252525,%eax
    af83:	25 25 25 25 25       	and    $0x25252525,%eax
    af88:	25 25 25 25 25       	and    $0x25252525,%eax
    af8d:	25 25 25 25 25       	and    $0x25252525,%eax
    af92:	25 25 25 25 25       	and    $0x25252525,%eax
    af97:	25 25 25 25 25       	and    $0x25252525,%eax
    af9c:	25 25 25 25 25       	and    $0x25252525,%eax
    afa1:	25 25 25 25 25       	and    $0x25252525,%eax
    afa6:	25 25 25 25 25       	and    $0x25252525,%eax
    afab:	25 25 25 25 25       	and    $0x25252525,%eax
    afb0:	25 25 25 25 25       	and    $0x25252525,%eax
    afb5:	25 25 25 25 25       	and    $0x25252525,%eax
    afba:	25 25 25 25 25       	and    $0x25252525,%eax
    afbf:	25 25 25 25 25       	and    $0x25252525,%eax
    afc4:	25 25 25 25 25       	and    $0x25252525,%eax
    afc9:	25 25 25 25 25       	and    $0x25252525,%eax
    afce:	25 25 25 25 25       	and    $0x25252525,%eax
    afd3:	25 25 25 25 25       	and    $0x25252525,%eax
    afd8:	25 25 25 25 25       	and    $0x25252525,%eax
    afdd:	25 25 25 25 25       	and    $0x25252525,%eax
    afe2:	25 25 25 25 25       	and    $0x25252525,%eax
    afe7:	25 25 25 25 25       	and    $0x25252525,%eax
    afec:	25 25 25 25 25       	and    $0x25252525,%eax
    aff1:	25 25 25 25 25       	and    $0x25252525,%eax
    aff6:	25 25 25 25 25       	and    $0x25252525,%eax
    affb:	25 25 25 25 25       	and    $0x25252525,%eax
    b000:	25 25 25 25 25       	and    $0x25252525,%eax
    b005:	25 25 25 25 25       	and    $0x25252525,%eax
    b00a:	25 25 25 25 25       	and    $0x25252525,%eax
    b00f:	25 25 25 25 25       	and    $0x25252525,%eax
    b014:	25 25 25 25 25       	and    $0x25252525,%eax
    b019:	25 25 25 25 25       	and    $0x25252525,%eax
    b01e:	25 25 25 25 25       	and    $0x25252525,%eax
    b023:	25 25 25 25 25       	and    $0x25252525,%eax
    b028:	25 25 25 25 25       	and    $0x25252525,%eax
    b02d:	25 25 25 25 25       	and    $0x25252525,%eax
    b032:	25 25 25 25 25       	and    $0x25252525,%eax
    b037:	25 25 25 25 25       	and    $0x25252525,%eax
    b03c:	25 25 25 25 25       	and    $0x25252525,%eax
    b041:	25 25 25 25 25       	and    $0x25252525,%eax
    b046:	25 25 25 25 25       	and    $0x25252525,%eax
    b04b:	25 25 25 25 25       	and    $0x25252525,%eax
    b050:	25 25 25 25 25       	and    $0x25252525,%eax
    b055:	25 25 25 25 25       	and    $0x25252525,%eax
    b05a:	25 25 25 25 25       	and    $0x25252525,%eax
    b05f:	25 25 25 25 25       	and    $0x25252525,%eax
    b064:	25 25 25 25 25       	and    $0x25252525,%eax
    b069:	25 25 25 25 25       	and    $0x25252525,%eax
    b06e:	25 25 25 25 25       	and    $0x25252525,%eax
    b073:	25 25 25 25 25       	and    $0x25252525,%eax
    b078:	25 25 25 25 25       	and    $0x25252525,%eax
    b07d:	25 25 25 25 25       	and    $0x25252525,%eax
    b082:	25 25 25 25 25       	and    $0x25252525,%eax
    b087:	25 25 25 25 25       	and    $0x25252525,%eax
    b08c:	25 25 25 25 25       	and    $0x25252525,%eax
    b091:	25 25 25 25 25       	and    $0x25252525,%eax
    b096:	25 25 25 25 25       	and    $0x25252525,%eax
    b09b:	25 25 25 25 25       	and    $0x25252525,%eax
    b0a0:	25 25 25 25 25       	and    $0x25252525,%eax
    b0a5:	25 25 25 25 25       	and    $0x25252525,%eax
    b0aa:	25 25 25 25 25       	and    $0x25252525,%eax
    b0af:	25 25 25 25 25       	and    $0x25252525,%eax
    b0b4:	25 25 25 25 25       	and    $0x25252525,%eax
    b0b9:	25 25 25 25 25       	and    $0x25252525,%eax
    b0be:	25 25 25 25 25       	and    $0x25252525,%eax
    b0c3:	25 25 25 25 25       	and    $0x25252525,%eax
    b0c8:	25 25 25 25 25       	and    $0x25252525,%eax
    b0cd:	25 25 25 25 25       	and    $0x25252525,%eax
    b0d2:	25 25 25 25 25       	and    $0x25252525,%eax
    b0d7:	25 25 25 25 25       	and    $0x25252525,%eax
    b0dc:	25 25 25 25 25       	and    $0x25252525,%eax
    b0e1:	25 25 25 25 25       	and    $0x25252525,%eax
    b0e6:	25 25 25 25 25       	and    $0x25252525,%eax
    b0eb:	25 25 25 25 25       	and    $0x25252525,%eax
    b0f0:	25 25 25 25 25       	and    $0x25252525,%eax
    b0f5:	25 25 25 25 25       	and    $0x25252525,%eax
    b0fa:	25 25 25 25 25       	and    $0x25252525,%eax
    b0ff:	25 25 25 25 25       	and    $0x25252525,%eax
    b104:	25 25 25 25 25       	and    $0x25252525,%eax
    b109:	25 25 25 25 25       	and    $0x25252525,%eax
    b10e:	25 25 25 25 25       	and    $0x25252525,%eax
    b113:	25 25 25 25 25       	and    $0x25252525,%eax
    b118:	25 25 25 25 25       	and    $0x25252525,%eax
    b11d:	25 25 25 25 25       	and    $0x25252525,%eax
    b122:	25 25 25 25 25       	and    $0x25252525,%eax
    b127:	25 25 25 25 25       	and    $0x25252525,%eax
    b12c:	25 25 25 25 25       	and    $0x25252525,%eax
    b131:	25 25 25 25 25       	and    $0x25252525,%eax
    b136:	25 25 25 25 25       	and    $0x25252525,%eax
    b13b:	25 25 25 25 25       	and    $0x25252525,%eax
    b140:	25 25 25 25 25       	and    $0x25252525,%eax
    b145:	25 25 25 25 25       	and    $0x25252525,%eax
    b14a:	25 25 25 25 25       	and    $0x25252525,%eax
    b14f:	25 25 25 25 25       	and    $0x25252525,%eax
    b154:	25 25 25 25 25       	and    $0x25252525,%eax
    b159:	25 25 25 25 25       	and    $0x25252525,%eax
    b15e:	25 25 25 25 25       	and    $0x25252525,%eax
    b163:	25 25 25 25 25       	and    $0x25252525,%eax
    b168:	25 25 25 25 25       	and    $0x25252525,%eax
    b16d:	25 25 25 25 25       	and    $0x25252525,%eax
    b172:	25 25 25 25 25       	and    $0x25252525,%eax
    b177:	25 25 25 25 25       	and    $0x25252525,%eax
    b17c:	25 25 25 25 25       	and    $0x25252525,%eax
    b181:	25 25 25 25 25       	and    $0x25252525,%eax
    b186:	25 25 25 25 25       	and    $0x25252525,%eax
    b18b:	25 25 25 25 25       	and    $0x25252525,%eax
    b190:	25 25 25 25 25       	and    $0x25252525,%eax
    b195:	25 25 25 25 25       	and    $0x25252525,%eax
    b19a:	25 25 25 25 25       	and    $0x25252525,%eax
    b19f:	25 25 25 25 25       	and    $0x25252525,%eax
    b1a4:	25 25 25 25 25       	and    $0x25252525,%eax
    b1a9:	25 25 25 25 25       	and    $0x25252525,%eax
    b1ae:	25 25 25 25 25       	and    $0x25252525,%eax
    b1b3:	25 25 25 25 25       	and    $0x25252525,%eax
    b1b8:	25 25 25 25 25       	and    $0x25252525,%eax
    b1bd:	25 25 25 25 25       	and    $0x25252525,%eax
    b1c2:	25 25 25 25 25       	and    $0x25252525,%eax
    b1c7:	25 25 25 25 25       	and    $0x25252525,%eax
    b1cc:	25 25 25 25 25       	and    $0x25252525,%eax
    b1d1:	25 25 25 25 25       	and    $0x25252525,%eax
    b1d6:	25 25 25 25 25       	and    $0x25252525,%eax
    b1db:	25 25 25 25 25       	and    $0x25252525,%eax
    b1e0:	25 25 25 25 25       	and    $0x25252525,%eax
    b1e5:	25 25 25 25 25       	and    $0x25252525,%eax
    b1ea:	25 25 25 25 25       	and    $0x25252525,%eax
    b1ef:	25 25 25 25 25       	and    $0x25252525,%eax
    b1f4:	25 25 25 25 25       	and    $0x25252525,%eax
    b1f9:	25 25 25 25 25       	and    $0x25252525,%eax
    b1fe:	25 25 25 25 25       	and    $0x25252525,%eax
    b203:	25 25 25 25 25       	and    $0x25252525,%eax
    b208:	25 25 25 25 25       	and    $0x25252525,%eax
    b20d:	25 25 25 25 25       	and    $0x25252525,%eax
    b212:	25 25 25 25 25       	and    $0x25252525,%eax
    b217:	25 25 25 25 25       	and    $0x25252525,%eax
    b21c:	25 25 25 25 25       	and    $0x25252525,%eax
    b221:	25 25 25 25 25       	and    $0x25252525,%eax
    b226:	25 25 25 25 25       	and    $0x25252525,%eax
    b22b:	25 25 25 25 25       	and    $0x25252525,%eax
    b230:	25 25 25 25 25       	and    $0x25252525,%eax
    b235:	25 25 25 25 25       	and    $0x25252525,%eax
    b23a:	25 25 25 25 25       	and    $0x25252525,%eax
    b23f:	25 25 25 25 25       	and    $0x25252525,%eax
    b244:	25 25 25 25 25       	and    $0x25252525,%eax
    b249:	25 25 25 25 25       	and    $0x25252525,%eax
    b24e:	25 25 25 25 25       	and    $0x25252525,%eax
    b253:	25 25 25 25 25       	and    $0x25252525,%eax
    b258:	25 25 25 25 25       	and    $0x25252525,%eax
    b25d:	25 25 25 25 25       	and    $0x25252525,%eax
    b262:	25 25 25 25 25       	and    $0x25252525,%eax
    b267:	25 25 25 25 25       	and    $0x25252525,%eax
    b26c:	25 25 25 25 25       	and    $0x25252525,%eax
    b271:	25 25 25 25 25       	and    $0x25252525,%eax
    b276:	25 25 25 25 25       	and    $0x25252525,%eax
    b27b:	25 25 25 25 25       	and    $0x25252525,%eax
    b280:	25 25 25 25 25       	and    $0x25252525,%eax
    b285:	25 25 25 25 25       	and    $0x25252525,%eax
    b28a:	25 25 25 25 25       	and    $0x25252525,%eax
    b28f:	25 25 25 25 25       	and    $0x25252525,%eax
    b294:	25 25 25 25 25       	and    $0x25252525,%eax
    b299:	25 25 25 25 25       	and    $0x25252525,%eax
    b29e:	25 25 25 25 25       	and    $0x25252525,%eax
    b2a3:	25 25 25 25 25       	and    $0x25252525,%eax
    b2a8:	25 25 25 25 25       	and    $0x25252525,%eax
    b2ad:	25 25 25 25 25       	and    $0x25252525,%eax
    b2b2:	25 25 25 25 25       	and    $0x25252525,%eax
    b2b7:	25 25 25 25 25       	and    $0x25252525,%eax
    b2bc:	25 25 25 25 25       	and    $0x25252525,%eax
    b2c1:	25 25 25 25 25       	and    $0x25252525,%eax
    b2c6:	25 25 25 25 25       	and    $0x25252525,%eax
    b2cb:	25 25 25 25 25       	and    $0x25252525,%eax
    b2d0:	25 25 25 25 25       	and    $0x25252525,%eax
    b2d5:	25 25 25 25 25       	and    $0x25252525,%eax
    b2da:	25 25 25 25 25       	and    $0x25252525,%eax
    b2df:	25 25 25 25 25       	and    $0x25252525,%eax
    b2e4:	25 25 25 25 25       	and    $0x25252525,%eax
    b2e9:	25 25 25 25 25       	and    $0x25252525,%eax
    b2ee:	25 25 25 25 25       	and    $0x25252525,%eax
    b2f3:	25 25 25 25 25       	and    $0x25252525,%eax
    b2f8:	25 25 25 25 25       	and    $0x25252525,%eax
    b2fd:	25 25 25 25 25       	and    $0x25252525,%eax
    b302:	25 25 25 25 25       	and    $0x25252525,%eax
    b307:	25 25 25 25 25       	and    $0x25252525,%eax
    b30c:	25 25 25 25 25       	and    $0x25252525,%eax
    b311:	25 25 25 25 25       	and    $0x25252525,%eax
    b316:	25 25 25 25 25       	and    $0x25252525,%eax
    b31b:	25 25 25 25 25       	and    $0x25252525,%eax
    b320:	25 25 25 25 25       	and    $0x25252525,%eax
    b325:	25 25 25 25 25       	and    $0x25252525,%eax
    b32a:	25 25 25 25 25       	and    $0x25252525,%eax
    b32f:	25 25 25 25 25       	and    $0x25252525,%eax
    b334:	25 25 25 25 25       	and    $0x25252525,%eax
    b339:	25 25 25 25 25       	and    $0x25252525,%eax
    b33e:	25 25 25 25 25       	and    $0x25252525,%eax
    b343:	25 25 25 25 25       	and    $0x25252525,%eax
    b348:	25 25 25 25 25       	and    $0x25252525,%eax
    b34d:	25 25 25 25 25       	and    $0x25252525,%eax
    b352:	25 25 25 25 25       	and    $0x25252525,%eax
    b357:	25 25 25 25 25       	and    $0x25252525,%eax
    b35c:	25 25 25 25 25       	and    $0x25252525,%eax
    b361:	25 25 25 25 25       	and    $0x25252525,%eax
    b366:	25 25 25 25 25       	and    $0x25252525,%eax
    b36b:	25 25 25 25 25       	and    $0x25252525,%eax
    b370:	25 25 25 25 25       	and    $0x25252525,%eax
    b375:	25 25 25 25 25       	and    $0x25252525,%eax
    b37a:	25 25 25 25 25       	and    $0x25252525,%eax
    b37f:	25 25 25 25 25       	and    $0x25252525,%eax
    b384:	25 25 25 25 25       	and    $0x25252525,%eax
    b389:	25 25 25 25 25       	and    $0x25252525,%eax
    b38e:	25 25 25 25 25       	and    $0x25252525,%eax
    b393:	25 25 25 25 25       	and    $0x25252525,%eax
    b398:	25 25 25 25 25       	and    $0x25252525,%eax
    b39d:	25 25 25 25 25       	and    $0x25252525,%eax
    b3a2:	25 25 25 25 25       	and    $0x25252525,%eax
    b3a7:	25 25 25 25 25       	and    $0x25252525,%eax
    b3ac:	25 25 25 25 25       	and    $0x25252525,%eax
    b3b1:	25 25 25 25 25       	and    $0x25252525,%eax
    b3b6:	25 25 25 25 25       	and    $0x25252525,%eax
    b3bb:	25 25 25 25 25       	and    $0x25252525,%eax
    b3c0:	25 25 25 25 25       	and    $0x25252525,%eax
    b3c5:	25 25 25 25 25       	and    $0x25252525,%eax
    b3ca:	25 25 25 25 25       	and    $0x25252525,%eax
    b3cf:	25 25 25 25 25       	and    $0x25252525,%eax
    b3d4:	25 25 25 25 25       	and    $0x25252525,%eax
    b3d9:	25 25 25 25 25       	and    $0x25252525,%eax
    b3de:	25 25 25 25 25       	and    $0x25252525,%eax
    b3e3:	25 25 25 25 25       	and    $0x25252525,%eax
    b3e8:	25 25 25 25 25       	and    $0x25252525,%eax
    b3ed:	25 25 25 25 25       	and    $0x25252525,%eax
    b3f2:	25 25 25 25 25       	and    $0x25252525,%eax
    b3f7:	25 25 25 25 25       	and    $0x25252525,%eax
    b3fc:	25 25 25 25 25       	and    $0x25252525,%eax
    b401:	25 25 25 25 25       	and    $0x25252525,%eax
    b406:	25 25 25 25 25       	and    $0x25252525,%eax
    b40b:	25 25 25 25 25       	and    $0x25252525,%eax
    b410:	25 25 25 25 25       	and    $0x25252525,%eax
    b415:	25 25 25 25 25       	and    $0x25252525,%eax
    b41a:	25 25 25 25 25       	and    $0x25252525,%eax
    b41f:	25 25 25 25 25       	and    $0x25252525,%eax
    b424:	25 25 25 25 25       	and    $0x25252525,%eax
    b429:	25 25 25 25 25       	and    $0x25252525,%eax
    b42e:	25 25 25 25 25       	and    $0x25252525,%eax
    b433:	25 25 25 25 25       	and    $0x25252525,%eax
    b438:	25 25 25 25 25       	and    $0x25252525,%eax
    b43d:	25 25 25 25 25       	and    $0x25252525,%eax
    b442:	25 25 25 25 25       	and    $0x25252525,%eax
    b447:	25 25 25 25 25       	and    $0x25252525,%eax
    b44c:	25 25 25 25 25       	and    $0x25252525,%eax
    b451:	25 25 25 25 25       	and    $0x25252525,%eax
    b456:	25 25 25 25 25       	and    $0x25252525,%eax
    b45b:	25 25 25 25 25       	and    $0x25252525,%eax
    b460:	25 25 25 25 25       	and    $0x25252525,%eax
    b465:	25 25 25 25 25       	and    $0x25252525,%eax
    b46a:	25 25 25 25 25       	and    $0x25252525,%eax
    b46f:	25 25 25 25 25       	and    $0x25252525,%eax
    b474:	25 25 25 25 25       	and    $0x25252525,%eax
    b479:	25 25 25 25 25       	and    $0x25252525,%eax
    b47e:	25 25 25 25 25       	and    $0x25252525,%eax
    b483:	25 25 25 25 25       	and    $0x25252525,%eax
    b488:	25 25 25 25 25       	and    $0x25252525,%eax
    b48d:	25 25 25 25 25       	and    $0x25252525,%eax
    b492:	25 25 25 25 25       	and    $0x25252525,%eax
    b497:	25 25 25 25 25       	and    $0x25252525,%eax
    b49c:	25 25 25 25 25       	and    $0x25252525,%eax
    b4a1:	25 25 25 25 25       	and    $0x25252525,%eax
    b4a6:	25 25 25 25 25       	and    $0x25252525,%eax
    b4ab:	25 25 25 25 25       	and    $0x25252525,%eax
    b4b0:	25 25 25 25 25       	and    $0x25252525,%eax
    b4b5:	25 25 25 25 25       	and    $0x25252525,%eax
    b4ba:	25 25 25 25 25       	and    $0x25252525,%eax
    b4bf:	25 25 25 25 25       	and    $0x25252525,%eax
    b4c4:	25 25 25 25 25       	and    $0x25252525,%eax
    b4c9:	25 25 25 25 25       	and    $0x25252525,%eax
    b4ce:	25 25 25 25 25       	and    $0x25252525,%eax
    b4d3:	25 25 25 25 25       	and    $0x25252525,%eax
    b4d8:	25 25 25 25 25       	and    $0x25252525,%eax
    b4dd:	25 25 25 25 25       	and    $0x25252525,%eax
    b4e2:	25 25 25 25 25       	and    $0x25252525,%eax
    b4e7:	25 25 25 25 25       	and    $0x25252525,%eax
    b4ec:	25 25 25 25 25       	and    $0x25252525,%eax
    b4f1:	25 25 25 25 25       	and    $0x25252525,%eax
    b4f6:	25 25 25 25 25       	and    $0x25252525,%eax
    b4fb:	25 25 25 25 25       	and    $0x25252525,%eax
    b500:	25 25 25 25 25       	and    $0x25252525,%eax
    b505:	25 25 25 25 25       	and    $0x25252525,%eax
    b50a:	25 25 25 25 25       	and    $0x25252525,%eax
    b50f:	25 25 25 25 25       	and    $0x25252525,%eax
    b514:	25 25 25 25 25       	and    $0x25252525,%eax
    b519:	25 25 25 25 25       	and    $0x25252525,%eax
    b51e:	25 25 25 25 25       	and    $0x25252525,%eax
    b523:	25 25 25 25 25       	and    $0x25252525,%eax
    b528:	25 25 25 25 25       	and    $0x25252525,%eax
    b52d:	25 25 25 25 25       	and    $0x25252525,%eax
    b532:	25 25 25 25 25       	and    $0x25252525,%eax
    b537:	25 25 25 25 25       	and    $0x25252525,%eax
    b53c:	25 25 25 25 25       	and    $0x25252525,%eax
    b541:	25 25 25 25 25       	and    $0x25252525,%eax
    b546:	25 25 25 25 25       	and    $0x25252525,%eax
    b54b:	25 25 25 25 25       	and    $0x25252525,%eax
    b550:	25 25 25 25 25       	and    $0x25252525,%eax
    b555:	25 25 25 25 25       	and    $0x25252525,%eax
    b55a:	25 25 25 25 25       	and    $0x25252525,%eax
    b55f:	25 25 25 25 25       	and    $0x25252525,%eax
    b564:	25 25 25 25 25       	and    $0x25252525,%eax
    b569:	25 25 25 25 25       	and    $0x25252525,%eax
    b56e:	25 25 25 25 25       	and    $0x25252525,%eax
    b573:	25 25 25 25 25       	and    $0x25252525,%eax
    b578:	25 25 25 25 25       	and    $0x25252525,%eax
    b57d:	25 25 25 25 25       	and    $0x25252525,%eax
    b582:	25 25 25 25 25       	and    $0x25252525,%eax
    b587:	25 25 25 25 25       	and    $0x25252525,%eax
    b58c:	25 25 25 25 25       	and    $0x25252525,%eax
    b591:	25 25 25 25 25       	and    $0x25252525,%eax
    b596:	25 25 25 25 25       	and    $0x25252525,%eax
    b59b:	25 25 25 25 25       	and    $0x25252525,%eax
    b5a0:	25 25 25 25 25       	and    $0x25252525,%eax
    b5a5:	25 25 25 25 25       	and    $0x25252525,%eax
    b5aa:	25 25 25 25 25       	and    $0x25252525,%eax
    b5af:	25 25 25 25 25       	and    $0x25252525,%eax
    b5b4:	25 25 25 25 25       	and    $0x25252525,%eax
    b5b9:	25 25 25 25 25       	and    $0x25252525,%eax
    b5be:	25 25 25 25 25       	and    $0x25252525,%eax
    b5c3:	25 25 25 25 25       	and    $0x25252525,%eax
    b5c8:	25 25 25 25 25       	and    $0x25252525,%eax
    b5cd:	25 25 25 25 25       	and    $0x25252525,%eax
    b5d2:	25 25 25 25 25       	and    $0x25252525,%eax
    b5d7:	25 25 25 25 25       	and    $0x25252525,%eax
    b5dc:	25 25 25 25 25       	and    $0x25252525,%eax
    b5e1:	25 25 25 25 25       	and    $0x25252525,%eax
    b5e6:	25 25 25 25 25       	and    $0x25252525,%eax
    b5eb:	25 25 25 25 25       	and    $0x25252525,%eax
    b5f0:	25 25 25 25 25       	and    $0x25252525,%eax
    b5f5:	25 25 25 25 25       	and    $0x25252525,%eax
    b5fa:	25 25 25 25 25       	and    $0x25252525,%eax
    b5ff:	25 25 25 25 25       	and    $0x25252525,%eax
    b604:	25 25 25 25 25       	and    $0x25252525,%eax
    b609:	25 25 25 25 25       	and    $0x25252525,%eax
    b60e:	25 25 25 25 25       	and    $0x25252525,%eax
    b613:	25 25 25 25 25       	and    $0x25252525,%eax
    b618:	25 25 25 25 25       	and    $0x25252525,%eax
    b61d:	25 25 25 25 25       	and    $0x25252525,%eax
    b622:	25 25 25 25 25       	and    $0x25252525,%eax
    b627:	25 25 25 25 25       	and    $0x25252525,%eax
    b62c:	25 25 25 25 25       	and    $0x25252525,%eax
    b631:	25 25 25 25 25       	and    $0x25252525,%eax
    b636:	25 25 25 25 25       	and    $0x25252525,%eax
    b63b:	25 25 25 25 25       	and    $0x25252525,%eax
    b640:	25 25 25 25 25       	and    $0x25252525,%eax
    b645:	25 25 25 25 25       	and    $0x25252525,%eax
    b64a:	25 25 25 25 25       	and    $0x25252525,%eax
    b64f:	25 25 25 25 25       	and    $0x25252525,%eax
    b654:	25 25 25 25 25       	and    $0x25252525,%eax
    b659:	25 25 25 25 25       	and    $0x25252525,%eax
    b65e:	25 25 25 25 25       	and    $0x25252525,%eax
    b663:	25 25 25 25 25       	and    $0x25252525,%eax
    b668:	25 25 25 25 25       	and    $0x25252525,%eax
    b66d:	25 25 25 25 25       	and    $0x25252525,%eax
    b672:	25 25 25 25 25       	and    $0x25252525,%eax
    b677:	25 25 25 25 25       	and    $0x25252525,%eax
    b67c:	25 25 25 25 25       	and    $0x25252525,%eax
    b681:	25 25 25 25 25       	and    $0x25252525,%eax
    b686:	25 25 25 25 25       	and    $0x25252525,%eax
    b68b:	25 25 25 25 25       	and    $0x25252525,%eax
    b690:	25 25 25 25 25       	and    $0x25252525,%eax
    b695:	25 25 25 25 25       	and    $0x25252525,%eax
    b69a:	25 25 25 25 25       	and    $0x25252525,%eax
    b69f:	25 25 25 25 25       	and    $0x25252525,%eax
    b6a4:	25 25 25 25 25       	and    $0x25252525,%eax
    b6a9:	25 25 25 25 25       	and    $0x25252525,%eax
    b6ae:	25 25 25 25 25       	and    $0x25252525,%eax
    b6b3:	25 25 25 25 25       	and    $0x25252525,%eax
    b6b8:	25 25 25 25 25       	and    $0x25252525,%eax
    b6bd:	25 25 25 25 25       	and    $0x25252525,%eax
    b6c2:	25 25 25 25 25       	and    $0x25252525,%eax
    b6c7:	25 25 25 25 25       	and    $0x25252525,%eax
    b6cc:	25 25 25 25 25       	and    $0x25252525,%eax
    b6d1:	25 25 25 25 25       	and    $0x25252525,%eax
    b6d6:	25 25 25 25 25       	and    $0x25252525,%eax
    b6db:	25 25 25 25 25       	and    $0x25252525,%eax
    b6e0:	25 25 25 25 25       	and    $0x25252525,%eax
    b6e5:	25 25 25 25 25       	and    $0x25252525,%eax
    b6ea:	25 25 25 25 25       	and    $0x25252525,%eax
    b6ef:	25 25 25 25 25       	and    $0x25252525,%eax
    b6f4:	25 25 25 25 25       	and    $0x25252525,%eax
    b6f9:	25 25 25 25 25       	and    $0x25252525,%eax
    b6fe:	25 25 25 25 25       	and    $0x25252525,%eax
    b703:	25 25 25 25 25       	and    $0x25252525,%eax
    b708:	25 25 25 25 25       	and    $0x25252525,%eax
    b70d:	25 25 25 25 25       	and    $0x25252525,%eax
    b712:	25 25 25 25 25       	and    $0x25252525,%eax
    b717:	25 25 25 25 25       	and    $0x25252525,%eax
    b71c:	25 25 25 25 25       	and    $0x25252525,%eax
    b721:	25 25 25 25 25       	and    $0x25252525,%eax
    b726:	25 25 25 25 25       	and    $0x25252525,%eax
    b72b:	25 25 25 25 25       	and    $0x25252525,%eax
    b730:	25 25 25 25 25       	and    $0x25252525,%eax
    b735:	25 25 25 25 25       	and    $0x25252525,%eax
    b73a:	25 25 25 25 25       	and    $0x25252525,%eax
    b73f:	25 25 25 25 25       	and    $0x25252525,%eax
    b744:	25 25 25 25 25       	and    $0x25252525,%eax
    b749:	25 25 25 25 25       	and    $0x25252525,%eax
    b74e:	25 25 25 25 25       	and    $0x25252525,%eax
    b753:	25 25 25 25 25       	and    $0x25252525,%eax
    b758:	25 25 25 25 25       	and    $0x25252525,%eax
    b75d:	25 25 25 25 25       	and    $0x25252525,%eax
    b762:	25 25 25 25 25       	and    $0x25252525,%eax
    b767:	25 25 25 25 25       	and    $0x25252525,%eax
    b76c:	25 25 25 25 25       	and    $0x25252525,%eax
    b771:	25 25 25 25 25       	and    $0x25252525,%eax
    b776:	25 25 25 25 25       	and    $0x25252525,%eax
    b77b:	25 25 25 25 25       	and    $0x25252525,%eax
    b780:	25 25 25 25 25       	and    $0x25252525,%eax
    b785:	25 25 25 25 25       	and    $0x25252525,%eax
    b78a:	25 25 25 25 25       	and    $0x25252525,%eax
    b78f:	25 25 25 25 25       	and    $0x25252525,%eax
    b794:	25 25 25 25 25       	and    $0x25252525,%eax
    b799:	25 25 25 25 25       	and    $0x25252525,%eax
    b79e:	25 25 25 25 25       	and    $0x25252525,%eax
    b7a3:	25 25 25 25 25       	and    $0x25252525,%eax
    b7a8:	25 25 25 25 25       	and    $0x25252525,%eax
    b7ad:	25 25 25 25 25       	and    $0x25252525,%eax
    b7b2:	25 25 25 25 25       	and    $0x25252525,%eax
    b7b7:	25 25 25 25 25       	and    $0x25252525,%eax
    b7bc:	25 25 25 25 25       	and    $0x25252525,%eax
    b7c1:	25 25 25 25 25       	and    $0x25252525,%eax
    b7c6:	25 25 25 25 25       	and    $0x25252525,%eax
    b7cb:	25 25 25 25 25       	and    $0x25252525,%eax
    b7d0:	25 25 25 25 25       	and    $0x25252525,%eax
    b7d5:	25 25 25 25 25       	and    $0x25252525,%eax
    b7da:	25 25 25 25 25       	and    $0x25252525,%eax
    b7df:	25 25 25 25 25       	and    $0x25252525,%eax
    b7e4:	25 25 25 25 25       	and    $0x25252525,%eax
    b7e9:	25 25 25 25 25       	and    $0x25252525,%eax
    b7ee:	25 25 25 25 25       	and    $0x25252525,%eax
    b7f3:	25 25 25 25 25       	and    $0x25252525,%eax
    b7f8:	25 25 25 25 25       	and    $0x25252525,%eax
    b7fd:	25 25 25 25 25       	and    $0x25252525,%eax
    b802:	25 25 25 25 25       	and    $0x25252525,%eax
    b807:	25 25 25 25 25       	and    $0x25252525,%eax
    b80c:	25 25 25 25 25       	and    $0x25252525,%eax
    b811:	25 25 25 25 25       	and    $0x25252525,%eax
    b816:	25 25 25 25 25       	and    $0x25252525,%eax
    b81b:	25 25 25 25 25       	and    $0x25252525,%eax
    b820:	25 25 25 25 25       	and    $0x25252525,%eax
    b825:	25 25 25 25 25       	and    $0x25252525,%eax
    b82a:	25 25 25 25 25       	and    $0x25252525,%eax
    b82f:	25 25 25 25 25       	and    $0x25252525,%eax
    b834:	25 25 25 25 25       	and    $0x25252525,%eax
    b839:	25 25 25 25 25       	and    $0x25252525,%eax
    b83e:	25 25 25 25 25       	and    $0x25252525,%eax
    b843:	25 25 25 25 25       	and    $0x25252525,%eax
    b848:	25 25 25 25 25       	and    $0x25252525,%eax
    b84d:	25 25 25 25 25       	and    $0x25252525,%eax
    b852:	25 25 25 25 25       	and    $0x25252525,%eax
    b857:	25 25 25 25 25       	and    $0x25252525,%eax
    b85c:	25 25 25 25 25       	and    $0x25252525,%eax
    b861:	25 25 25 25 25       	and    $0x25252525,%eax
    b866:	25 25 25 25 25       	and    $0x25252525,%eax
    b86b:	25 25 25 25 25       	and    $0x25252525,%eax
    b870:	25 25 25 25 25       	and    $0x25252525,%eax
    b875:	25 25 25 25 25       	and    $0x25252525,%eax
    b87a:	25 25 25 25 25       	and    $0x25252525,%eax
    b87f:	25 25 25 25 25       	and    $0x25252525,%eax
    b884:	25 25 25 25 25       	and    $0x25252525,%eax
    b889:	25 25 25 25 25       	and    $0x25252525,%eax
    b88e:	25 25 25 25 25       	and    $0x25252525,%eax
    b893:	25 25 25 25 25       	and    $0x25252525,%eax
    b898:	25 25 25 25 25       	and    $0x25252525,%eax
    b89d:	25 25 25 25 25       	and    $0x25252525,%eax
    b8a2:	25 25 25 25 25       	and    $0x25252525,%eax
    b8a7:	25 25 25 25 25       	and    $0x25252525,%eax
    b8ac:	25 25 25 25 25       	and    $0x25252525,%eax
    b8b1:	25 25 25 25 25       	and    $0x25252525,%eax
    b8b6:	25 25 25 25 25       	and    $0x25252525,%eax
    b8bb:	25 25 25 25 25       	and    $0x25252525,%eax
    b8c0:	25 25 25 25 25       	and    $0x25252525,%eax
    b8c5:	25 25 25 25 25       	and    $0x25252525,%eax
    b8ca:	25 25 25 25 25       	and    $0x25252525,%eax
    b8cf:	25 25 25 25 25       	and    $0x25252525,%eax
    b8d4:	25 25 25 25 25       	and    $0x25252525,%eax
    b8d9:	25 25 25 25 25       	and    $0x25252525,%eax
    b8de:	25 25 25 25 25       	and    $0x25252525,%eax
    b8e3:	25 25 25 25 25       	and    $0x25252525,%eax
    b8e8:	25 25 25 25 25       	and    $0x25252525,%eax
    b8ed:	25 25 25 25 25       	and    $0x25252525,%eax
    b8f2:	25 25 25 25 25       	and    $0x25252525,%eax
    b8f7:	25 25 25 25 25       	and    $0x25252525,%eax
    b8fc:	25 25 25 25 25       	and    $0x25252525,%eax
    b901:	25 25 25 25 25       	and    $0x25252525,%eax
    b906:	25 25 25 25 25       	and    $0x25252525,%eax
    b90b:	25 25 25 25 25       	and    $0x25252525,%eax
    b910:	25 25 25 25 25       	and    $0x25252525,%eax
    b915:	25 25 25 25 25       	and    $0x25252525,%eax
    b91a:	25 25 25 25 25       	and    $0x25252525,%eax
    b91f:	25 25 25 25 25       	and    $0x25252525,%eax
    b924:	25 25 25 25 25       	and    $0x25252525,%eax
    b929:	25 25 25 25 25       	and    $0x25252525,%eax
    b92e:	25 25 25 25 25       	and    $0x25252525,%eax
    b933:	25 25 25 25 25       	and    $0x25252525,%eax
    b938:	25 25 25 25 25       	and    $0x25252525,%eax
    b93d:	25 25 25 25 25       	and    $0x25252525,%eax
    b942:	25 25 25 25 25       	and    $0x25252525,%eax
    b947:	25 25 25 25 25       	and    $0x25252525,%eax
    b94c:	25 25 25 25 25       	and    $0x25252525,%eax
    b951:	25 25 25 25 25       	and    $0x25252525,%eax
    b956:	25 25 25 25 25       	and    $0x25252525,%eax
    b95b:	25 25 25 25 25       	and    $0x25252525,%eax
    b960:	25 25 25 25 25       	and    $0x25252525,%eax
    b965:	25 25 25 25 25       	and    $0x25252525,%eax
    b96a:	25 25 25 25 25       	and    $0x25252525,%eax
    b96f:	25 25 25 25 25       	and    $0x25252525,%eax
    b974:	25 25 25 25 25       	and    $0x25252525,%eax
    b979:	25 25 25 25 25       	and    $0x25252525,%eax
    b97e:	25 25 25 25 25       	and    $0x25252525,%eax
    b983:	25 25 25 25 25       	and    $0x25252525,%eax
    b988:	25 25 25 25 25       	and    $0x25252525,%eax
    b98d:	25 25 25 25 25       	and    $0x25252525,%eax
    b992:	25 25 25 25 25       	and    $0x25252525,%eax
    b997:	25 25 25 25 25       	and    $0x25252525,%eax
    b99c:	25 25 25 25 25       	and    $0x25252525,%eax
    b9a1:	25 25 25 25 25       	and    $0x25252525,%eax
    b9a6:	25 25 25 25 25       	and    $0x25252525,%eax
    b9ab:	25 25 25 25 25       	and    $0x25252525,%eax
    b9b0:	25 25 25 25 25       	and    $0x25252525,%eax
    b9b5:	25 25 25 25 25       	and    $0x25252525,%eax
    b9ba:	25 25 25 25 25       	and    $0x25252525,%eax
    b9bf:	25 25 25 25 25       	and    $0x25252525,%eax
    b9c4:	25 25 25 25 25       	and    $0x25252525,%eax
    b9c9:	25 25 25 25 25       	and    $0x25252525,%eax
    b9ce:	25 25 25 25 25       	and    $0x25252525,%eax
    b9d3:	25 25 25 25 25       	and    $0x25252525,%eax
    b9d8:	25 25 25 25 25       	and    $0x25252525,%eax
    b9dd:	25 25 25 25 25       	and    $0x25252525,%eax
    b9e2:	25 25 25 25 25       	and    $0x25252525,%eax
    b9e7:	25 25 25 25 25       	and    $0x25252525,%eax
    b9ec:	25 25 25 25 25       	and    $0x25252525,%eax
    b9f1:	25 25 25 25 25       	and    $0x25252525,%eax
    b9f6:	25 25 25 25 25       	and    $0x25252525,%eax
    b9fb:	25 25 25 25 25       	and    $0x25252525,%eax
    ba00:	25 25 25 25 25       	and    $0x25252525,%eax
    ba05:	25 25 25 25 25       	and    $0x25252525,%eax
    ba0a:	25 25 25 25 25       	and    $0x25252525,%eax
    ba0f:	25 25 25 25 25       	and    $0x25252525,%eax
    ba14:	25 25 25 25 25       	and    $0x25252525,%eax
    ba19:	25 25 25 25 25       	and    $0x25252525,%eax
    ba1e:	25 25 25 25 25       	and    $0x25252525,%eax
    ba23:	25 25 25 25 25       	and    $0x25252525,%eax
    ba28:	25 25 25 25 25       	and    $0x25252525,%eax
    ba2d:	25 25 25 25 25       	and    $0x25252525,%eax
    ba32:	25 25 25 25 25       	and    $0x25252525,%eax
    ba37:	25 25 25 25 25       	and    $0x25252525,%eax
    ba3c:	25 25 25 25 25       	and    $0x25252525,%eax
    ba41:	25 25 25 25 25       	and    $0x25252525,%eax
    ba46:	25 25 25 25 25       	and    $0x25252525,%eax
    ba4b:	25 25 25 25 25       	and    $0x25252525,%eax
    ba50:	25 25 25 25 25       	and    $0x25252525,%eax
    ba55:	25 25 25 25 25       	and    $0x25252525,%eax
    ba5a:	25 25 25 25 25       	and    $0x25252525,%eax
    ba5f:	25 25 25 25 25       	and    $0x25252525,%eax
    ba64:	25 25 25 25 25       	and    $0x25252525,%eax
    ba69:	25 25 25 25 25       	and    $0x25252525,%eax
    ba6e:	25 25 25 25 25       	and    $0x25252525,%eax
    ba73:	25 25 25 25 25       	and    $0x25252525,%eax
    ba78:	25 25 25 25 25       	and    $0x25252525,%eax
    ba7d:	25 25 25 25 25       	and    $0x25252525,%eax
    ba82:	25 25 25 25 25       	and    $0x25252525,%eax
    ba87:	25 25 25 25 25       	and    $0x25252525,%eax
    ba8c:	25 25 25 25 25       	and    $0x25252525,%eax
    ba91:	25 25 25 25 25       	and    $0x25252525,%eax
    ba96:	25 25 25 25 25       	and    $0x25252525,%eax
    ba9b:	25 25 25 25 25       	and    $0x25252525,%eax
    baa0:	25 25 25 25 25       	and    $0x25252525,%eax
    baa5:	25 25 25 25 25       	and    $0x25252525,%eax
    baaa:	25 25 25 25 25       	and    $0x25252525,%eax
    baaf:	25 25 25 25 25       	and    $0x25252525,%eax
    bab4:	25 25 25 25 25       	and    $0x25252525,%eax
    bab9:	25 25 25 25 25       	and    $0x25252525,%eax
    babe:	25 25 25 25 25       	and    $0x25252525,%eax
    bac3:	25 25 25 25 25       	and    $0x25252525,%eax
    bac8:	25 25 25 25 25       	and    $0x25252525,%eax
    bacd:	25 25 25 25 25       	and    $0x25252525,%eax
    bad2:	25 25 25 25 25       	and    $0x25252525,%eax
    bad7:	25 25 25 25 25       	and    $0x25252525,%eax
    badc:	25 25 25 25 25       	and    $0x25252525,%eax
    bae1:	25 25 25 25 25       	and    $0x25252525,%eax
    bae6:	25 25 25 25 25       	and    $0x25252525,%eax
    baeb:	25 25 25 25 25       	and    $0x25252525,%eax
    baf0:	25 25 25 25 25       	and    $0x25252525,%eax
    baf5:	25 25 25 25 25       	and    $0x25252525,%eax
    bafa:	25 25 25 25 25       	and    $0x25252525,%eax
    baff:	25 25 25 25 25       	and    $0x25252525,%eax
    bb04:	25 25 25 25 25       	and    $0x25252525,%eax
    bb09:	25 25 25 25 25       	and    $0x25252525,%eax
    bb0e:	25 25 25 25 25       	and    $0x25252525,%eax
    bb13:	25 25 25 25 25       	and    $0x25252525,%eax
    bb18:	25 25 25 25 25       	and    $0x25252525,%eax
    bb1d:	25 25 25 25 25       	and    $0x25252525,%eax
    bb22:	25 25 25 25 25       	and    $0x25252525,%eax
    bb27:	25 25 25 25 25       	and    $0x25252525,%eax
    bb2c:	25 25 25 25 25       	and    $0x25252525,%eax
    bb31:	25 25 25 25 25       	and    $0x25252525,%eax
    bb36:	25 25 25 25 25       	and    $0x25252525,%eax
    bb3b:	25 25 25 25 25       	and    $0x25252525,%eax
    bb40:	25 25 25 25 25       	and    $0x25252525,%eax
    bb45:	25 25 25 25 25       	and    $0x25252525,%eax
    bb4a:	25 25 25 25 25       	and    $0x25252525,%eax
    bb4f:	25 25 25 25 25       	and    $0x25252525,%eax
    bb54:	25 25 25 25 25       	and    $0x25252525,%eax
    bb59:	25 25 25 25 25       	and    $0x25252525,%eax
    bb5e:	25 25 25 25 25       	and    $0x25252525,%eax
    bb63:	25 25 25 25 25       	and    $0x25252525,%eax
    bb68:	25 25 25 25 25       	and    $0x25252525,%eax
    bb6d:	25 25 25 25 25       	and    $0x25252525,%eax
    bb72:	25 25 25 25 25       	and    $0x25252525,%eax
    bb77:	25 25 25 25 25       	and    $0x25252525,%eax
    bb7c:	25 25 25 25 25       	and    $0x25252525,%eax
    bb81:	25 25 25 25 25       	and    $0x25252525,%eax
    bb86:	25 25 25 25 25       	and    $0x25252525,%eax
    bb8b:	25 25 25 25 25       	and    $0x25252525,%eax
    bb90:	25 25 25 25 25       	and    $0x25252525,%eax
    bb95:	25 25 25 25 25       	and    $0x25252525,%eax
    bb9a:	25 25 25 25 25       	and    $0x25252525,%eax
    bb9f:	25 25 25 25 25       	and    $0x25252525,%eax
    bba4:	25 25 25 25 25       	and    $0x25252525,%eax
    bba9:	25 25 25 25 25       	and    $0x25252525,%eax
    bbae:	25 25 25 25 25       	and    $0x25252525,%eax
    bbb3:	25 25 25 25 25       	and    $0x25252525,%eax
    bbb8:	25 25 25 25 25       	and    $0x25252525,%eax
    bbbd:	25 25 25 25 25       	and    $0x25252525,%eax
    bbc2:	25 25 25 25 25       	and    $0x25252525,%eax
    bbc7:	25 25 25 25 25       	and    $0x25252525,%eax
    bbcc:	25 25 25 25 25       	and    $0x25252525,%eax
    bbd1:	25 25 25 25 25       	and    $0x25252525,%eax
    bbd6:	25 25 25 25 25       	and    $0x25252525,%eax
    bbdb:	25 25 25 25 25       	and    $0x25252525,%eax
    bbe0:	25 25 25 25 25       	and    $0x25252525,%eax
    bbe5:	25 25 25 25 25       	and    $0x25252525,%eax
    bbea:	25 25 25 25 25       	and    $0x25252525,%eax
    bbef:	25 25 25 25 25       	and    $0x25252525,%eax
    bbf4:	25 25 25 25 25       	and    $0x25252525,%eax
    bbf9:	25 25 25 25 25       	and    $0x25252525,%eax
    bbfe:	25 25 25 25 25       	and    $0x25252525,%eax
    bc03:	25 25 25 25 25       	and    $0x25252525,%eax
    bc08:	25 25 25 25 25       	and    $0x25252525,%eax
    bc0d:	25 25 25 25 25       	and    $0x25252525,%eax
    bc12:	25 25 25 25 25       	and    $0x25252525,%eax
    bc17:	25 25 25 25 25       	and    $0x25252525,%eax
    bc1c:	25 25 25 25 25       	and    $0x25252525,%eax
    bc21:	25 25 25 25 25       	and    $0x25252525,%eax
    bc26:	25 25 25 25 25       	and    $0x25252525,%eax
    bc2b:	25 25 25 25 25       	and    $0x25252525,%eax
    bc30:	25 25 25 25 25       	and    $0x25252525,%eax
    bc35:	25 25 25 25 25       	and    $0x25252525,%eax
    bc3a:	25 25 25 25 25       	and    $0x25252525,%eax
    bc3f:	25 25 25 25 25       	and    $0x25252525,%eax
    bc44:	25 25 25 25 25       	and    $0x25252525,%eax
    bc49:	25 25 25 25 25       	and    $0x25252525,%eax
    bc4e:	25 25 25 25 25       	and    $0x25252525,%eax
    bc53:	25 25 25 25 25       	and    $0x25252525,%eax
    bc58:	25 25 25 25 25       	and    $0x25252525,%eax
    bc5d:	25 25 25 25 25       	and    $0x25252525,%eax
    bc62:	25 25 25 25 25       	and    $0x25252525,%eax
    bc67:	25 25 25 25 25       	and    $0x25252525,%eax
    bc6c:	25 25 25 25 25       	and    $0x25252525,%eax
    bc71:	25 25 25 25 25       	and    $0x25252525,%eax
    bc76:	25 25 25 25 25       	and    $0x25252525,%eax
    bc7b:	25 25 25 25 25       	and    $0x25252525,%eax
    bc80:	25 25 25 25 25       	and    $0x25252525,%eax
    bc85:	25 25 25 25 25       	and    $0x25252525,%eax
    bc8a:	25 25 25 25 25       	and    $0x25252525,%eax
    bc8f:	25 25 25 25 25       	and    $0x25252525,%eax
    bc94:	25 25 25 25 25       	and    $0x25252525,%eax
    bc99:	25 25 25 25 25       	and    $0x25252525,%eax
    bc9e:	25 25 25 25 25       	and    $0x25252525,%eax
    bca3:	25 25 25 25 25       	and    $0x25252525,%eax
    bca8:	25 25 25 25 25       	and    $0x25252525,%eax
    bcad:	25 25 25 25 25       	and    $0x25252525,%eax
    bcb2:	25 25 25 25 25       	and    $0x25252525,%eax
    bcb7:	25 25 25 25 25       	and    $0x25252525,%eax
    bcbc:	25 25 25 25 25       	and    $0x25252525,%eax
    bcc1:	25 25 25 25 25       	and    $0x25252525,%eax
    bcc6:	25 25 25 25 25       	and    $0x25252525,%eax
    bccb:	25 25 25 25 25       	and    $0x25252525,%eax
    bcd0:	25 25 25 25 25       	and    $0x25252525,%eax
    bcd5:	25 25 25 25 25       	and    $0x25252525,%eax
    bcda:	25 25 25 25 25       	and    $0x25252525,%eax
    bcdf:	25 25 25 25 25       	and    $0x25252525,%eax
    bce4:	25 25 25 25 25       	and    $0x25252525,%eax
    bce9:	25 25 25 25 25       	and    $0x25252525,%eax
    bcee:	25 25 25 25 25       	and    $0x25252525,%eax
    bcf3:	25 25 25 25 25       	and    $0x25252525,%eax
    bcf8:	25 25 25 25 25       	and    $0x25252525,%eax
    bcfd:	25 25 25 25 25       	and    $0x25252525,%eax
    bd02:	25 25 25 25 25       	and    $0x25252525,%eax
    bd07:	25 25 25 25 25       	and    $0x25252525,%eax
    bd0c:	25 25 25 25 25       	and    $0x25252525,%eax
    bd11:	25 25 25 25 25       	and    $0x25252525,%eax
    bd16:	25 25 25 25 25       	and    $0x25252525,%eax
    bd1b:	25 25 25 25 25       	and    $0x25252525,%eax
    bd20:	25 25 25 25 25       	and    $0x25252525,%eax
    bd25:	25 25 25 25 25       	and    $0x25252525,%eax
    bd2a:	25 25 25 25 25       	and    $0x25252525,%eax
    bd2f:	25 25 25 25 25       	and    $0x25252525,%eax
    bd34:	25 25 25 25 25       	and    $0x25252525,%eax
    bd39:	25 25 25 25 25       	and    $0x25252525,%eax
    bd3e:	25 25 25 25 25       	and    $0x25252525,%eax
    bd43:	25 25 25 25 25       	and    $0x25252525,%eax
    bd48:	25 25 25 25 25       	and    $0x25252525,%eax
    bd4d:	25 25 25 25 25       	and    $0x25252525,%eax
    bd52:	25 25 25 25 25       	and    $0x25252525,%eax
    bd57:	25 25 25 25 25       	and    $0x25252525,%eax
    bd5c:	25 25 25 25 25       	and    $0x25252525,%eax
    bd61:	25 25 25 25 25       	and    $0x25252525,%eax
    bd66:	25 25 25 25 25       	and    $0x25252525,%eax
    bd6b:	25 25 25 25 25       	and    $0x25252525,%eax
    bd70:	25 25 25 25 25       	and    $0x25252525,%eax
    bd75:	25 25 25 25 25       	and    $0x25252525,%eax
    bd7a:	25 25 25 25 25       	and    $0x25252525,%eax
    bd7f:	25 25 25 25 25       	and    $0x25252525,%eax
    bd84:	25 25 25 25 25       	and    $0x25252525,%eax
    bd89:	25 25 25 25 25       	and    $0x25252525,%eax
    bd8e:	25 25 25 25 25       	and    $0x25252525,%eax
    bd93:	25 25 25 25 25       	and    $0x25252525,%eax
    bd98:	25 25 25 25 25       	and    $0x25252525,%eax
    bd9d:	25 25 25 25 25       	and    $0x25252525,%eax
    bda2:	25 25 25 25 25       	and    $0x25252525,%eax
    bda7:	25 25 25 25 25       	and    $0x25252525,%eax
    bdac:	25 25 25 25 25       	and    $0x25252525,%eax
    bdb1:	25 25 25 25 25       	and    $0x25252525,%eax
    bdb6:	25 25 25 25 25       	and    $0x25252525,%eax
    bdbb:	25 25 25 25 25       	and    $0x25252525,%eax
    bdc0:	25 25 25 25 25       	and    $0x25252525,%eax
    bdc5:	25 25 25 25 25       	and    $0x25252525,%eax
    bdca:	25 25 25 25 25       	and    $0x25252525,%eax
    bdcf:	25 25 25 25 25       	and    $0x25252525,%eax
    bdd4:	25 25 25 25 25       	and    $0x25252525,%eax
    bdd9:	25 25 25 25 25       	and    $0x25252525,%eax
    bdde:	25 25 25 25 25       	and    $0x25252525,%eax
    bde3:	25 25 25 25 25       	and    $0x25252525,%eax
    bde8:	25 25 25 25 25       	and    $0x25252525,%eax
    bded:	25 25 25 25 25       	and    $0x25252525,%eax
    bdf2:	25 25 25 25 25       	and    $0x25252525,%eax
    bdf7:	25 25 25 25 25       	and    $0x25252525,%eax
    bdfc:	25 25 25 25 25       	and    $0x25252525,%eax
    be01:	25 25 25 25 25       	and    $0x25252525,%eax
    be06:	25 25 25 25 25       	and    $0x25252525,%eax
    be0b:	25 25 25 25 25       	and    $0x25252525,%eax
    be10:	25 25 25 25 25       	and    $0x25252525,%eax
    be15:	25 25 25 25 25       	and    $0x25252525,%eax
    be1a:	25 25 25 25 25       	and    $0x25252525,%eax
    be1f:	25 25 25 25 25       	and    $0x25252525,%eax
    be24:	25 25 25 25 25       	and    $0x25252525,%eax
    be29:	25 25 25 25 25       	and    $0x25252525,%eax
    be2e:	25 25 25 25 25       	and    $0x25252525,%eax
    be33:	25 25 25 25 25       	and    $0x25252525,%eax
    be38:	25 25 25 25 25       	and    $0x25252525,%eax
    be3d:	25 25 25 25 25       	and    $0x25252525,%eax
    be42:	25 25 25 25 25       	and    $0x25252525,%eax
    be47:	25 25 25 25 25       	and    $0x25252525,%eax
    be4c:	25 25 25 25 25       	and    $0x25252525,%eax
    be51:	25 25 25 25 25       	and    $0x25252525,%eax
    be56:	25 25 25 25 25       	and    $0x25252525,%eax
    be5b:	25 25 25 25 25       	and    $0x25252525,%eax
    be60:	25 25 25 25 25       	and    $0x25252525,%eax
    be65:	25 25 25 25 25       	and    $0x25252525,%eax
    be6a:	25 25 25 25 25       	and    $0x25252525,%eax
    be6f:	25 25 25 25 25       	and    $0x25252525,%eax
    be74:	25 25 25 25 25       	and    $0x25252525,%eax
    be79:	25 25 25 25 25       	and    $0x25252525,%eax
    be7e:	25 25 25 25 25       	and    $0x25252525,%eax
    be83:	25 25 25 25 25       	and    $0x25252525,%eax
    be88:	25 25 25 25 25       	and    $0x25252525,%eax
    be8d:	25 25 25 25 25       	and    $0x25252525,%eax
    be92:	25 25 25 25 25       	and    $0x25252525,%eax
    be97:	25 25 25 25 25       	and    $0x25252525,%eax
    be9c:	25 25 25 25 25       	and    $0x25252525,%eax
    bea1:	25 25 25 25 25       	and    $0x25252525,%eax
    bea6:	25 25 25 25 25       	and    $0x25252525,%eax
    beab:	25 25 25 25 25       	and    $0x25252525,%eax
    beb0:	25 25 25 25 25       	and    $0x25252525,%eax
    beb5:	25 25 25 25 25       	and    $0x25252525,%eax
    beba:	25 25 25 25 25       	and    $0x25252525,%eax
    bebf:	25 25 25 25 25       	and    $0x25252525,%eax
    bec4:	25 25 25 25 25       	and    $0x25252525,%eax
    bec9:	25 25 25 25 25       	and    $0x25252525,%eax
    bece:	25 25 25 25 25       	and    $0x25252525,%eax
    bed3:	25 25 25 25 25       	and    $0x25252525,%eax
    bed8:	25 25 25 25 25       	and    $0x25252525,%eax
    bedd:	25 25 25 25 25       	and    $0x25252525,%eax
    bee2:	25 25 25 25 25       	and    $0x25252525,%eax
    bee7:	25 25 25 25 25       	and    $0x25252525,%eax
    beec:	25 25 25 25 25       	and    $0x25252525,%eax
    bef1:	25 25 25 25 25       	and    $0x25252525,%eax
    bef6:	25 25 25 25 25       	and    $0x25252525,%eax
    befb:	25 25 25 25 25       	and    $0x25252525,%eax
    bf00:	25 25 25 25 25       	and    $0x25252525,%eax
    bf05:	25 25 25 25 25       	and    $0x25252525,%eax
    bf0a:	25 25 25 25 25       	and    $0x25252525,%eax
    bf0f:	25 25 25 25 25       	and    $0x25252525,%eax
    bf14:	25 25 25 25 25       	and    $0x25252525,%eax
    bf19:	25 25 25 25 25       	and    $0x25252525,%eax
    bf1e:	25 25 25 25 25       	and    $0x25252525,%eax
    bf23:	25 25 25 25 25       	and    $0x25252525,%eax
    bf28:	25 25 25 25 25       	and    $0x25252525,%eax
    bf2d:	25 25 25 25 25       	and    $0x25252525,%eax
    bf32:	25 25 25 25 25       	and    $0x25252525,%eax
    bf37:	25 25 25 25 25       	and    $0x25252525,%eax
    bf3c:	25 25 25 25 25       	and    $0x25252525,%eax
    bf41:	25 25 25 25 25       	and    $0x25252525,%eax
    bf46:	25 25 25 25 25       	and    $0x25252525,%eax
    bf4b:	25 25 25 25 25       	and    $0x25252525,%eax
    bf50:	25 25 25 25 25       	and    $0x25252525,%eax
    bf55:	25 25 25 25 25       	and    $0x25252525,%eax
    bf5a:	25 25 25 25 25       	and    $0x25252525,%eax
    bf5f:	25 25 25 25 25       	and    $0x25252525,%eax
    bf64:	25 25 25 25 25       	and    $0x25252525,%eax
    bf69:	25 25 25 25 25       	and    $0x25252525,%eax
    bf6e:	25 25 25 25 25       	and    $0x25252525,%eax
    bf73:	25 25 25 25 25       	and    $0x25252525,%eax
    bf78:	25 25 25 25 25       	and    $0x25252525,%eax
    bf7d:	25 25 25 25 25       	and    $0x25252525,%eax
    bf82:	25 25 25 25 25       	and    $0x25252525,%eax
    bf87:	25 25 25 25 25       	and    $0x25252525,%eax
    bf8c:	25 25 25 25 25       	and    $0x25252525,%eax
    bf91:	25 25 25 25 25       	and    $0x25252525,%eax
    bf96:	25 25 25 25 25       	and    $0x25252525,%eax
    bf9b:	25 25 25 25 25       	and    $0x25252525,%eax
    bfa0:	25 25 25 25 25       	and    $0x25252525,%eax
    bfa5:	25 25 25 25 25       	and    $0x25252525,%eax
    bfaa:	25 25 25 25 25       	and    $0x25252525,%eax
    bfaf:	25 25 25 25 25       	and    $0x25252525,%eax
    bfb4:	25 25 25 25 25       	and    $0x25252525,%eax
    bfb9:	25 25 25 25 25       	and    $0x25252525,%eax
    bfbe:	25 25 25 25 25       	and    $0x25252525,%eax
    bfc3:	25 25 25 25 25       	and    $0x25252525,%eax
    bfc8:	25 25 25 25 25       	and    $0x25252525,%eax
    bfcd:	25 25 25 25 25       	and    $0x25252525,%eax
    bfd2:	25 25 25 25 25       	and    $0x25252525,%eax
    bfd7:	25 25 25 25 25       	and    $0x25252525,%eax
    bfdc:	25 25 25 25 25       	and    $0x25252525,%eax
    bfe1:	25 25 25 25 25       	and    $0x25252525,%eax
    bfe6:	25 25 25 25 25       	and    $0x25252525,%eax
    bfeb:	25 25 25 25 25       	and    $0x25252525,%eax
    bff0:	25 25 25 25 25       	and    $0x25252525,%eax
    bff5:	25 25 25 25 25       	and    $0x25252525,%eax
    bffa:	25 25 25 25 25       	and    $0x25252525,%eax
    bfff:	25 25 25 25 25       	and    $0x25252525,%eax
    c004:	25 25 25 25 25       	and    $0x25252525,%eax
    c009:	25 25 25 25 25       	and    $0x25252525,%eax
    c00e:	25 25 25 25 25       	and    $0x25252525,%eax
    c013:	25 25 25 25 25       	and    $0x25252525,%eax
    c018:	25 25 25 25 25       	and    $0x25252525,%eax
    c01d:	25 25 25 25 25       	and    $0x25252525,%eax
    c022:	25 25 25 25 25       	and    $0x25252525,%eax
    c027:	25 25 25 25 25       	and    $0x25252525,%eax
    c02c:	25 25 25 25 25       	and    $0x25252525,%eax
    c031:	25 25 25 25 25       	and    $0x25252525,%eax
    c036:	25 25 25 25 25       	and    $0x25252525,%eax
    c03b:	25 25 25 25 25       	and    $0x25252525,%eax
    c040:	25 25 25 25 25       	and    $0x25252525,%eax
    c045:	25 25 25 25 25       	and    $0x25252525,%eax
    c04a:	25 25 25 25 25       	and    $0x25252525,%eax
    c04f:	25 25 25 25 25       	and    $0x25252525,%eax
    c054:	25 25 25 25 25       	and    $0x25252525,%eax
    c059:	25 25 25 25 25       	and    $0x25252525,%eax
    c05e:	25 25 25 25 25       	and    $0x25252525,%eax
    c063:	25 25 25 25 25       	and    $0x25252525,%eax
    c068:	25 25 25 25 25       	and    $0x25252525,%eax
    c06d:	25 25 25 25 25       	and    $0x25252525,%eax
    c072:	25 25 25 25 25       	and    $0x25252525,%eax
    c077:	25 25 25 25 25       	and    $0x25252525,%eax
    c07c:	25 25 25 25 25       	and    $0x25252525,%eax
    c081:	25 25 25 25 25       	and    $0x25252525,%eax
    c086:	25 25 25 25 25       	and    $0x25252525,%eax
    c08b:	25 25 25 25 25       	and    $0x25252525,%eax
    c090:	25 25 25 25 25       	and    $0x25252525,%eax
    c095:	25 25 25 25 25       	and    $0x25252525,%eax
    c09a:	25 25 25 25 25       	and    $0x25252525,%eax
    c09f:	25 25 25 25 25       	and    $0x25252525,%eax
    c0a4:	25 25 25 25 25       	and    $0x25252525,%eax
    c0a9:	25 25 25 25 25       	and    $0x25252525,%eax
    c0ae:	25 25 25 25 25       	and    $0x25252525,%eax
    c0b3:	25 25 25 25 25       	and    $0x25252525,%eax
    c0b8:	25 25 25 25 25       	and    $0x25252525,%eax
    c0bd:	25 25 25 25 25       	and    $0x25252525,%eax
    c0c2:	25 25 25 25 25       	and    $0x25252525,%eax
    c0c7:	25 25 25 25 25       	and    $0x25252525,%eax
    c0cc:	25 25 25 25 25       	and    $0x25252525,%eax
    c0d1:	25 25 25 25 25       	and    $0x25252525,%eax
    c0d6:	25 25 25 25 25       	and    $0x25252525,%eax
    c0db:	25 25 25 25 25       	and    $0x25252525,%eax
    c0e0:	25 25 25 25 25       	and    $0x25252525,%eax
    c0e5:	25 25 25 25 25       	and    $0x25252525,%eax
    c0ea:	25 25 25 25 25       	and    $0x25252525,%eax
    c0ef:	25 25 25 25 25       	and    $0x25252525,%eax
    c0f4:	25 25 25 25 25       	and    $0x25252525,%eax
    c0f9:	25 25 25 25 25       	and    $0x25252525,%eax
    c0fe:	25 25 25 25 25       	and    $0x25252525,%eax
    c103:	25 25 25 25 25       	and    $0x25252525,%eax
    c108:	25 25 25 25 25       	and    $0x25252525,%eax
    c10d:	25 25 25 25 25       	and    $0x25252525,%eax
    c112:	25 25 25 25 25       	and    $0x25252525,%eax
    c117:	25 25 25 25 25       	and    $0x25252525,%eax
    c11c:	25 25 25 25 25       	and    $0x25252525,%eax
    c121:	25 25 25 25 25       	and    $0x25252525,%eax
    c126:	25 25 25 25 25       	and    $0x25252525,%eax
    c12b:	25 25 25 25 25       	and    $0x25252525,%eax
    c130:	25 25 25 25 25       	and    $0x25252525,%eax
    c135:	25 25 25 25 25       	and    $0x25252525,%eax
    c13a:	25 25 25 25 25       	and    $0x25252525,%eax
    c13f:	25 25 25 25 25       	and    $0x25252525,%eax
    c144:	25 25 25 25 25       	and    $0x25252525,%eax
    c149:	25 25 25 25 25       	and    $0x25252525,%eax
    c14e:	25 25 25 25 25       	and    $0x25252525,%eax
    c153:	25 25 25 25 25       	and    $0x25252525,%eax
    c158:	25 25 25 25 25       	and    $0x25252525,%eax
    c15d:	25 25 25 25 25       	and    $0x25252525,%eax
    c162:	25 25 25 25 25       	and    $0x25252525,%eax
    c167:	25 25 25 25 25       	and    $0x25252525,%eax
    c16c:	25 25 25 25 25       	and    $0x25252525,%eax
    c171:	25 25 25 25 25       	and    $0x25252525,%eax
    c176:	25 25 25 25 25       	and    $0x25252525,%eax
    c17b:	25 25 25 25 25       	and    $0x25252525,%eax
    c180:	25 25 25 25 25       	and    $0x25252525,%eax
    c185:	25 25 25 25 25       	and    $0x25252525,%eax
    c18a:	25 25 25 25 25       	and    $0x25252525,%eax
    c18f:	25 25 25 25 25       	and    $0x25252525,%eax
    c194:	25 25 25 25 25       	and    $0x25252525,%eax
    c199:	25 25 25 25 25       	and    $0x25252525,%eax
    c19e:	25 25 25 25 25       	and    $0x25252525,%eax
    c1a3:	25 25 25 25 25       	and    $0x25252525,%eax
    c1a8:	25 25 25 25 25       	and    $0x25252525,%eax
    c1ad:	25 25 25 25 25       	and    $0x25252525,%eax
    c1b2:	25 25 25 25 25       	and    $0x25252525,%eax
    c1b7:	25 25 25 25 25       	and    $0x25252525,%eax
    c1bc:	25 25 25 25 25       	and    $0x25252525,%eax
    c1c1:	25 25 25 25 25       	and    $0x25252525,%eax
    c1c6:	25 25 25 25 25       	and    $0x25252525,%eax
    c1cb:	25 25 25 25 25       	and    $0x25252525,%eax
    c1d0:	25 25 25 25 25       	and    $0x25252525,%eax
    c1d5:	25 25 25 25 25       	and    $0x25252525,%eax
    c1da:	25 25 25 25 25       	and    $0x25252525,%eax
    c1df:	25 25 25 25 25       	and    $0x25252525,%eax
    c1e4:	25 25 25 25 25       	and    $0x25252525,%eax
    c1e9:	25 25 25 25 25       	and    $0x25252525,%eax
    c1ee:	25 25 25 25 25       	and    $0x25252525,%eax
    c1f3:	25 25 25 25 25       	and    $0x25252525,%eax
    c1f8:	25 25 25 25 25       	and    $0x25252525,%eax
    c1fd:	25 25 25 25 25       	and    $0x25252525,%eax
    c202:	25 25 25 25 25       	and    $0x25252525,%eax
    c207:	25 25 25 25 25       	and    $0x25252525,%eax
    c20c:	25 25 25 25 25       	and    $0x25252525,%eax
    c211:	25 25 25 25 25       	and    $0x25252525,%eax
    c216:	25 25 25 25 25       	and    $0x25252525,%eax
    c21b:	25 25 25 25 25       	and    $0x25252525,%eax
    c220:	25 25 25 25 25       	and    $0x25252525,%eax
    c225:	25 25 25 25 25       	and    $0x25252525,%eax
    c22a:	25 25 25 25 25       	and    $0x25252525,%eax
    c22f:	25 25 25 25 25       	and    $0x25252525,%eax
    c234:	25 25 25 25 25       	and    $0x25252525,%eax
    c239:	25 25 25 25 25       	and    $0x25252525,%eax
    c23e:	25 25 25 25 25       	and    $0x25252525,%eax
    c243:	25 25 25 25 25       	and    $0x25252525,%eax
    c248:	25 25 25 25 25       	and    $0x25252525,%eax
    c24d:	25 25 25 25 25       	and    $0x25252525,%eax
    c252:	25 25 25 25 25       	and    $0x25252525,%eax
    c257:	25 25 25 25 25       	and    $0x25252525,%eax
    c25c:	25 25 25 25 25       	and    $0x25252525,%eax
    c261:	25 25 25 25 25       	and    $0x25252525,%eax
    c266:	25 25 25 25 25       	and    $0x25252525,%eax
    c26b:	25 25 25 25 25       	and    $0x25252525,%eax
    c270:	25 25 25 25 25       	and    $0x25252525,%eax
    c275:	25 25 25 25 25       	and    $0x25252525,%eax
    c27a:	25 25 25 25 25       	and    $0x25252525,%eax
    c27f:	25 25 25 25 25       	and    $0x25252525,%eax
    c284:	25 25 25 25 25       	and    $0x25252525,%eax
    c289:	25 25 25 25 25       	and    $0x25252525,%eax
    c28e:	25 25 25 25 25       	and    $0x25252525,%eax
    c293:	25 25 25 25 25       	and    $0x25252525,%eax
    c298:	25 25 25 25 25       	and    $0x25252525,%eax
    c29d:	25 25 25 25 25       	and    $0x25252525,%eax
    c2a2:	25 25 25 25 25       	and    $0x25252525,%eax
    c2a7:	25 25 25 25 25       	and    $0x25252525,%eax
    c2ac:	25 25 25 25 25       	and    $0x25252525,%eax
    c2b1:	25 25 25 25 25       	and    $0x25252525,%eax
    c2b6:	25 25 25 25 25       	and    $0x25252525,%eax
    c2bb:	25 25 25 25 25       	and    $0x25252525,%eax
    c2c0:	25 25 25 25 25       	and    $0x25252525,%eax
    c2c5:	25 25 25 25 25       	and    $0x25252525,%eax
    c2ca:	25 25 25 25 25       	and    $0x25252525,%eax
    c2cf:	25 25 25 25 25       	and    $0x25252525,%eax
    c2d4:	25 25 25 25 25       	and    $0x25252525,%eax
    c2d9:	25 25 25 25 25       	and    $0x25252525,%eax
    c2de:	25 25 25 25 25       	and    $0x25252525,%eax
    c2e3:	25 25 25 25 25       	and    $0x25252525,%eax
    c2e8:	25 25 25 25 25       	and    $0x25252525,%eax
    c2ed:	25 25 25 25 25       	and    $0x25252525,%eax
    c2f2:	25 25 25 25 25       	and    $0x25252525,%eax
    c2f7:	25 25 25 25 25       	and    $0x25252525,%eax
    c2fc:	25 25 25 25 25       	and    $0x25252525,%eax
    c301:	25 25 25 25 25       	and    $0x25252525,%eax
    c306:	25 25 25 25 25       	and    $0x25252525,%eax
    c30b:	25 25 25 25 25       	and    $0x25252525,%eax
    c310:	25 25 25 25 25       	and    $0x25252525,%eax
    c315:	25 25 25 25 25       	and    $0x25252525,%eax
    c31a:	25 25 25 25 25       	and    $0x25252525,%eax
    c31f:	25 25 25 25 25       	and    $0x25252525,%eax
    c324:	25 25 25 25 25       	and    $0x25252525,%eax
    c329:	25 25 25 25 25       	and    $0x25252525,%eax
    c32e:	25 25 25 25 25       	and    $0x25252525,%eax
    c333:	25 25 25 25 25       	and    $0x25252525,%eax
    c338:	25 25 25 25 25       	and    $0x25252525,%eax
    c33d:	25 25 25 25 25       	and    $0x25252525,%eax
    c342:	25 25 25 25 25       	and    $0x25252525,%eax
    c347:	25 25 25 25 25       	and    $0x25252525,%eax
    c34c:	25 25 25 25 25       	and    $0x25252525,%eax
    c351:	25 25 25 25 25       	and    $0x25252525,%eax
    c356:	25 25 25 25 25       	and    $0x25252525,%eax
    c35b:	25 25 25 25 25       	and    $0x25252525,%eax
    c360:	25 25 25 25 25       	and    $0x25252525,%eax
    c365:	25 25 25 25 25       	and    $0x25252525,%eax
    c36a:	25 25 25 25 25       	and    $0x25252525,%eax
    c36f:	25 25 25 25 25       	and    $0x25252525,%eax
    c374:	25 25 25 25 25       	and    $0x25252525,%eax
    c379:	25 25 25 25 25       	and    $0x25252525,%eax
    c37e:	25 25 25 25 25       	and    $0x25252525,%eax
    c383:	25 25 25 25 25       	and    $0x25252525,%eax
    c388:	25 25 25 25 25       	and    $0x25252525,%eax
    c38d:	25 25 25 25 25       	and    $0x25252525,%eax
    c392:	25 25 25 25 25       	and    $0x25252525,%eax
    c397:	25 25 25 25 25       	and    $0x25252525,%eax
    c39c:	25 25 25 25 25       	and    $0x25252525,%eax
    c3a1:	25 25 25 25 25       	and    $0x25252525,%eax
    c3a6:	25 25 25 25 25       	and    $0x25252525,%eax
    c3ab:	25 25 25 25 25       	and    $0x25252525,%eax
    c3b0:	25 25 25 25 25       	and    $0x25252525,%eax
    c3b5:	25 25 25 25 25       	and    $0x25252525,%eax
    c3ba:	25 25 25 25 25       	and    $0x25252525,%eax
    c3bf:	25 25 25 25 25       	and    $0x25252525,%eax
    c3c4:	25 25 25 25 25       	and    $0x25252525,%eax
    c3c9:	25 25 25 25 25       	and    $0x25252525,%eax
    c3ce:	25 25 25 25 25       	and    $0x25252525,%eax
    c3d3:	25 25 25 25 25       	and    $0x25252525,%eax
    c3d8:	25 25 25 25 25       	and    $0x25252525,%eax
    c3dd:	25 25 25 25 25       	and    $0x25252525,%eax
    c3e2:	25 25 25 25 25       	and    $0x25252525,%eax
    c3e7:	25 25 25 25 25       	and    $0x25252525,%eax
    c3ec:	25 25 25 25 25       	and    $0x25252525,%eax
    c3f1:	25 25 25 25 25       	and    $0x25252525,%eax
    c3f6:	25 25 25 25 25       	and    $0x25252525,%eax
    c3fb:	25 25 25 25 25       	and    $0x25252525,%eax
    c400:	25 25 25 25 25       	and    $0x25252525,%eax
    c405:	25 25 25 25 25       	and    $0x25252525,%eax
    c40a:	25 25 25 25 25       	and    $0x25252525,%eax
    c40f:	25 25 25 25 25       	and    $0x25252525,%eax
    c414:	25 25 25 25 25       	and    $0x25252525,%eax
    c419:	25 25 25 25 25       	and    $0x25252525,%eax
    c41e:	25 25 25 25 25       	and    $0x25252525,%eax
    c423:	25 25 25 25 25       	and    $0x25252525,%eax
    c428:	25 25 25 25 25       	and    $0x25252525,%eax
    c42d:	25 25 25 25 25       	and    $0x25252525,%eax
    c432:	25 25 25 25 25       	and    $0x25252525,%eax
    c437:	25 25 25 25 25       	and    $0x25252525,%eax
    c43c:	25 25 25 25 25       	and    $0x25252525,%eax
    c441:	25 25 25 25 25       	and    $0x25252525,%eax
    c446:	25 25 25 25 25       	and    $0x25252525,%eax
    c44b:	25 25 25 25 25       	and    $0x25252525,%eax
    c450:	25 25 25 25 25       	and    $0x25252525,%eax
    c455:	25 25 25 25 25       	and    $0x25252525,%eax
    c45a:	25 25 25 25 25       	and    $0x25252525,%eax
    c45f:	25 25 25 25 25       	and    $0x25252525,%eax
    c464:	25 25 25 25 25       	and    $0x25252525,%eax
    c469:	25 25 25 25 25       	and    $0x25252525,%eax
    c46e:	25 25 25 25 25       	and    $0x25252525,%eax
    c473:	25 25 25 25 25       	and    $0x25252525,%eax
    c478:	25 25 25 25 25       	and    $0x25252525,%eax
    c47d:	25 25 25 25 25       	and    $0x25252525,%eax
    c482:	25 25 25 25 25       	and    $0x25252525,%eax
    c487:	25 25 25 25 25       	and    $0x25252525,%eax
    c48c:	25 25 25 25 25       	and    $0x25252525,%eax
    c491:	25 25 25 25 25       	and    $0x25252525,%eax
    c496:	25 25 25 25 25       	and    $0x25252525,%eax
    c49b:	25 25 25 25 25       	and    $0x25252525,%eax
    c4a0:	25 25 25 25 25       	and    $0x25252525,%eax
    c4a5:	25 25 25 25 25       	and    $0x25252525,%eax
    c4aa:	25 25 25 25 25       	and    $0x25252525,%eax
    c4af:	25 25 25 25 25       	and    $0x25252525,%eax
    c4b4:	25 25 25 25 25       	and    $0x25252525,%eax
    c4b9:	25 25 25 25 25       	and    $0x25252525,%eax
    c4be:	25 25 25 25 25       	and    $0x25252525,%eax
    c4c3:	25 25 25 25 25       	and    $0x25252525,%eax
    c4c8:	25 25 25 25 25       	and    $0x25252525,%eax
    c4cd:	25 25 25 25 25       	and    $0x25252525,%eax
    c4d2:	25 25 25 25 25       	and    $0x25252525,%eax
    c4d7:	25 25 25 25 25       	and    $0x25252525,%eax
    c4dc:	25 25 25 25 25       	and    $0x25252525,%eax
    c4e1:	25 25 25 25 25       	and    $0x25252525,%eax
    c4e6:	25 25 25 25 25       	and    $0x25252525,%eax
    c4eb:	25 25 25 25 25       	and    $0x25252525,%eax
    c4f0:	25 25 25 25 25       	and    $0x25252525,%eax
    c4f5:	25 25 25 25 25       	and    $0x25252525,%eax
    c4fa:	25 25 25 25 25       	and    $0x25252525,%eax
    c4ff:	25 25 25 25 25       	and    $0x25252525,%eax
    c504:	25 25 25 25 25       	and    $0x25252525,%eax
    c509:	25 25 25 25 25       	and    $0x25252525,%eax
    c50e:	25 25 25 25 25       	and    $0x25252525,%eax
    c513:	25 25 25 25 25       	and    $0x25252525,%eax
    c518:	25 25 25 25 25       	and    $0x25252525,%eax
    c51d:	25 25 25 25 25       	and    $0x25252525,%eax
    c522:	25 25 25 25 25       	and    $0x25252525,%eax
    c527:	25 25 25 25 25       	and    $0x25252525,%eax
    c52c:	25 25 25 25 25       	and    $0x25252525,%eax
    c531:	25 25 25 25 25       	and    $0x25252525,%eax
    c536:	25 25 25 25 25       	and    $0x25252525,%eax
    c53b:	25 25 25 25 25       	and    $0x25252525,%eax
    c540:	25 25 25 25 25       	and    $0x25252525,%eax
    c545:	25 25 25 25 25       	and    $0x25252525,%eax
    c54a:	25 25 25 25 25       	and    $0x25252525,%eax
    c54f:	25 25 25 25 25       	and    $0x25252525,%eax
    c554:	25 25 25 25 25       	and    $0x25252525,%eax
    c559:	25 25 25 25 25       	and    $0x25252525,%eax
    c55e:	25 25 25 25 25       	and    $0x25252525,%eax
    c563:	25 25 25 25 25       	and    $0x25252525,%eax
    c568:	25 25 25 25 25       	and    $0x25252525,%eax
    c56d:	25 25 25 25 25       	and    $0x25252525,%eax
    c572:	25 25 25 25 25       	and    $0x25252525,%eax
    c577:	25 25 25 25 25       	and    $0x25252525,%eax
    c57c:	25 25 25 25 25       	and    $0x25252525,%eax
    c581:	25 25 25 25 25       	and    $0x25252525,%eax
    c586:	25 25 25 25 25       	and    $0x25252525,%eax
    c58b:	25 25 25 25 25       	and    $0x25252525,%eax
    c590:	25 25 25 25 25       	and    $0x25252525,%eax
    c595:	25 25 25 25 25       	and    $0x25252525,%eax
    c59a:	25 25 25 25 25       	and    $0x25252525,%eax
    c59f:	25 25 25 25 25       	and    $0x25252525,%eax
    c5a4:	25 25 25 25 25       	and    $0x25252525,%eax
    c5a9:	25 25 25 25 25       	and    $0x25252525,%eax
    c5ae:	25 25 25 25 25       	and    $0x25252525,%eax
    c5b3:	25 25 25 25 25       	and    $0x25252525,%eax
    c5b8:	25 25 25 25 25       	and    $0x25252525,%eax
    c5bd:	25 25 25 25 25       	and    $0x25252525,%eax
    c5c2:	25 25 25 25 25       	and    $0x25252525,%eax
    c5c7:	25 25 25 25 25       	and    $0x25252525,%eax
    c5cc:	25 25 25 25 25       	and    $0x25252525,%eax
    c5d1:	25 25 25 25 25       	and    $0x25252525,%eax
    c5d6:	25 25 25 25 25       	and    $0x25252525,%eax
    c5db:	25 25 25 25 25       	and    $0x25252525,%eax
    c5e0:	25 25 25 25 25       	and    $0x25252525,%eax
    c5e5:	25 25 25 25 25       	and    $0x25252525,%eax
    c5ea:	25 25 25 25 25       	and    $0x25252525,%eax
    c5ef:	25 25 25 25 25       	and    $0x25252525,%eax
    c5f4:	25 25 25 25 25       	and    $0x25252525,%eax
    c5f9:	25 25 25 25 25       	and    $0x25252525,%eax
    c5fe:	25 25 25 25 25       	and    $0x25252525,%eax
    c603:	25 25 25 25 25       	and    $0x25252525,%eax
    c608:	25 25 25 25 25       	and    $0x25252525,%eax
    c60d:	25 25 25 25 25       	and    $0x25252525,%eax
    c612:	25 25 25 25 25       	and    $0x25252525,%eax
    c617:	25 25 25 25 25       	and    $0x25252525,%eax
    c61c:	25 25 25 25 25       	and    $0x25252525,%eax
    c621:	25 25 25 25 25       	and    $0x25252525,%eax
    c626:	25 25 25 25 25       	and    $0x25252525,%eax
    c62b:	25 25 25 25 25       	and    $0x25252525,%eax
    c630:	25 25 25 25 25       	and    $0x25252525,%eax
    c635:	25 25 25 25 25       	and    $0x25252525,%eax
    c63a:	25 25 25 25 25       	and    $0x25252525,%eax
    c63f:	25 25 25 25 25       	and    $0x25252525,%eax
    c644:	25 25 25 25 25       	and    $0x25252525,%eax
    c649:	25 25 25 25 25       	and    $0x25252525,%eax
    c64e:	25 25 25 25 25       	and    $0x25252525,%eax
    c653:	25 25 25 25 25       	and    $0x25252525,%eax
    c658:	25 25 25 25 25       	and    $0x25252525,%eax
    c65d:	25 25 25 25 25       	and    $0x25252525,%eax
    c662:	25 25 25 25 25       	and    $0x25252525,%eax
    c667:	25 25 25 25 25       	and    $0x25252525,%eax
    c66c:	25 25 25 25 25       	and    $0x25252525,%eax
    c671:	25 25 25 25 25       	and    $0x25252525,%eax
    c676:	25 25 25 25 25       	and    $0x25252525,%eax
    c67b:	25 25 25 25 25       	and    $0x25252525,%eax
    c680:	25 25 25 25 25       	and    $0x25252525,%eax
    c685:	25 25 25 25 25       	and    $0x25252525,%eax
    c68a:	25 25 25 25 25       	and    $0x25252525,%eax
    c68f:	25 25 25 25 25       	and    $0x25252525,%eax
    c694:	25 25 25 25 25       	and    $0x25252525,%eax
    c699:	25 25 25 25 25       	and    $0x25252525,%eax
    c69e:	25 25 25 25 25       	and    $0x25252525,%eax
    c6a3:	25 25 25 25 25       	and    $0x25252525,%eax
    c6a8:	25 25 25 25 25       	and    $0x25252525,%eax
    c6ad:	25 25 25 25 25       	and    $0x25252525,%eax
    c6b2:	25 25 25 25 25       	and    $0x25252525,%eax
    c6b7:	25 25 25 25 25       	and    $0x25252525,%eax
    c6bc:	25 25 25 25 25       	and    $0x25252525,%eax
    c6c1:	25 25 25 25 25       	and    $0x25252525,%eax
    c6c6:	25 25 25 25 25       	and    $0x25252525,%eax
    c6cb:	25 25 25 25 25       	and    $0x25252525,%eax
    c6d0:	25 25 25 25 25       	and    $0x25252525,%eax
    c6d5:	25 25 25 25 25       	and    $0x25252525,%eax
    c6da:	25 25 25 25 25       	and    $0x25252525,%eax
    c6df:	25 25 25 25 25       	and    $0x25252525,%eax
    c6e4:	25 25 25 25 25       	and    $0x25252525,%eax
    c6e9:	25 25 25 25 25       	and    $0x25252525,%eax
    c6ee:	25 25 25 25 25       	and    $0x25252525,%eax
    c6f3:	25 25 25 25 25       	and    $0x25252525,%eax
    c6f8:	25 25 25 25 25       	and    $0x25252525,%eax
    c6fd:	25 25 25 25 25       	and    $0x25252525,%eax
    c702:	25 25 25 25 25       	and    $0x25252525,%eax
    c707:	25 25 25 25 25       	and    $0x25252525,%eax
    c70c:	25 25 25 25 25       	and    $0x25252525,%eax
    c711:	25 25 25 25 25       	and    $0x25252525,%eax
    c716:	25 25 25 25 25       	and    $0x25252525,%eax
    c71b:	25 25 25 25 25       	and    $0x25252525,%eax
    c720:	25 25 25 25 25       	and    $0x25252525,%eax
    c725:	25 25 25 25 25       	and    $0x25252525,%eax
    c72a:	25 25 25 25 25       	and    $0x25252525,%eax
    c72f:	25 25 25 25 25       	and    $0x25252525,%eax
    c734:	25 25 25 25 25       	and    $0x25252525,%eax
    c739:	25 25 25 25 25       	and    $0x25252525,%eax
    c73e:	25 25 25 25 25       	and    $0x25252525,%eax
    c743:	25 25 25 25 25       	and    $0x25252525,%eax
    c748:	25 25 25 25 25       	and    $0x25252525,%eax
    c74d:	25 25 25 25 25       	and    $0x25252525,%eax
    c752:	25 25 25 25 25       	and    $0x25252525,%eax
    c757:	25 25 25 25 25       	and    $0x25252525,%eax
    c75c:	25 25 25 25 25       	and    $0x25252525,%eax
    c761:	25 25 25 25 25       	and    $0x25252525,%eax
    c766:	25 25 25 25 25       	and    $0x25252525,%eax
    c76b:	25 25 25 25 25       	and    $0x25252525,%eax
    c770:	25 25 25 25 25       	and    $0x25252525,%eax
    c775:	25 25 25 25 25       	and    $0x25252525,%eax
    c77a:	25 25 25 25 25       	and    $0x25252525,%eax
    c77f:	25 25 25 25 25       	and    $0x25252525,%eax
    c784:	25 25 25 25 25       	and    $0x25252525,%eax
    c789:	25 25 25 25 25       	and    $0x25252525,%eax
    c78e:	25 25 25 25 25       	and    $0x25252525,%eax
    c793:	25 25 25 25 25       	and    $0x25252525,%eax
    c798:	25 25 25 25 25       	and    $0x25252525,%eax
    c79d:	25 25 25 25 25       	and    $0x25252525,%eax
    c7a2:	25 25 25 25 25       	and    $0x25252525,%eax
    c7a7:	25 25 25 25 25       	and    $0x25252525,%eax
    c7ac:	25 25 25 25 25       	and    $0x25252525,%eax
    c7b1:	25 25 25 25 25       	and    $0x25252525,%eax
    c7b6:	25 25 25 25 25       	and    $0x25252525,%eax
    c7bb:	25 25 25 25 25       	and    $0x25252525,%eax
    c7c0:	25 25 25 25 25       	and    $0x25252525,%eax
    c7c5:	25 25 25 25 25       	and    $0x25252525,%eax
    c7ca:	25 25 25 25 25       	and    $0x25252525,%eax
    c7cf:	25 25 25 25 25       	and    $0x25252525,%eax
    c7d4:	25 25 25 25 25       	and    $0x25252525,%eax
    c7d9:	25 25 25 25 25       	and    $0x25252525,%eax
    c7de:	25 25 25 25 25       	and    $0x25252525,%eax
    c7e3:	25 25 25 25 25       	and    $0x25252525,%eax
    c7e8:	25 25 25 25 25       	and    $0x25252525,%eax
    c7ed:	25 25 25 25 25       	and    $0x25252525,%eax
    c7f2:	25 25 25 25 25       	and    $0x25252525,%eax
    c7f7:	25 25 25 25 25       	and    $0x25252525,%eax
    c7fc:	25 25 25 25 25       	and    $0x25252525,%eax
    c801:	25 25 25 25 25       	and    $0x25252525,%eax
    c806:	25 25 25 25 25       	and    $0x25252525,%eax
    c80b:	25 25 25 25 25       	and    $0x25252525,%eax
    c810:	25 25 25 25 25       	and    $0x25252525,%eax
    c815:	25 25 25 25 25       	and    $0x25252525,%eax
    c81a:	25 25 25 25 25       	and    $0x25252525,%eax
    c81f:	25 25 25 25 25       	and    $0x25252525,%eax
    c824:	25 25 25 25 25       	and    $0x25252525,%eax
    c829:	25 25 25 25 25       	and    $0x25252525,%eax
    c82e:	25 25 25 25 25       	and    $0x25252525,%eax
    c833:	25 25 25 25 25       	and    $0x25252525,%eax
    c838:	25 25 25 25 25       	and    $0x25252525,%eax
    c83d:	25 25 25 25 25       	and    $0x25252525,%eax
    c842:	25 25 25 25 25       	and    $0x25252525,%eax
    c847:	25 25 25 25 25       	and    $0x25252525,%eax
    c84c:	25 25 25 25 25       	and    $0x25252525,%eax
    c851:	25 25 25 25 25       	and    $0x25252525,%eax
    c856:	25 25 25 25 25       	and    $0x25252525,%eax
    c85b:	25 25 25 25 25       	and    $0x25252525,%eax
    c860:	25 25 25 25 25       	and    $0x25252525,%eax
    c865:	25 25 25 25 25       	and    $0x25252525,%eax
    c86a:	25 25 25 25 25       	and    $0x25252525,%eax
    c86f:	25 25 25 25 25       	and    $0x25252525,%eax
    c874:	25 25 25 25 25       	and    $0x25252525,%eax
    c879:	25 25 25 25 25       	and    $0x25252525,%eax
    c87e:	25 25 25 25 25       	and    $0x25252525,%eax
    c883:	25 25 25 25 25       	and    $0x25252525,%eax
    c888:	25 25 25 25 25       	and    $0x25252525,%eax
    c88d:	25 25 25 25 25       	and    $0x25252525,%eax
    c892:	25 25 25 25 25       	and    $0x25252525,%eax
    c897:	25 25 25 25 25       	and    $0x25252525,%eax
    c89c:	25 25 25 25 25       	and    $0x25252525,%eax
    c8a1:	25 25 25 25 25       	and    $0x25252525,%eax
    c8a6:	25 25 25 25 25       	and    $0x25252525,%eax
    c8ab:	25 25 25 25 25       	and    $0x25252525,%eax
    c8b0:	25 25 25 25 25       	and    $0x25252525,%eax
    c8b5:	25 25 25 25 25       	and    $0x25252525,%eax
    c8ba:	25 25 25 25 25       	and    $0x25252525,%eax
    c8bf:	25 25 25 25 25       	and    $0x25252525,%eax
    c8c4:	25 25 25 25 25       	and    $0x25252525,%eax
    c8c9:	25 25 25 25 25       	and    $0x25252525,%eax
    c8ce:	25 25 25 25 25       	and    $0x25252525,%eax
    c8d3:	25 25 25 25 25       	and    $0x25252525,%eax
    c8d8:	25 25 25 25 25       	and    $0x25252525,%eax
    c8dd:	25 25 25 25 25       	and    $0x25252525,%eax
    c8e2:	25 25 25 25 25       	and    $0x25252525,%eax
    c8e7:	25 25 25 25 25       	and    $0x25252525,%eax
    c8ec:	25 25 25 25 25       	and    $0x25252525,%eax
    c8f1:	25 25 25 25 25       	and    $0x25252525,%eax
    c8f6:	25 25 25 25 25       	and    $0x25252525,%eax
    c8fb:	25 25 25 25 25       	and    $0x25252525,%eax
    c900:	25 25 25 25 25       	and    $0x25252525,%eax
    c905:	25 25 25 25 25       	and    $0x25252525,%eax
    c90a:	25 25 25 25 25       	and    $0x25252525,%eax
    c90f:	25 25 25 25 25       	and    $0x25252525,%eax
    c914:	25 25 25 25 25       	and    $0x25252525,%eax
    c919:	25 25 25 25 25       	and    $0x25252525,%eax
    c91e:	25 25 25 25 25       	and    $0x25252525,%eax
    c923:	25 25 25 25 25       	and    $0x25252525,%eax
    c928:	25 25 25 25 25       	and    $0x25252525,%eax
    c92d:	25 25 25 25 25       	and    $0x25252525,%eax
    c932:	25 25 25 25 25       	and    $0x25252525,%eax
    c937:	25 25 25 25 25       	and    $0x25252525,%eax
    c93c:	25 25 25 25 25       	and    $0x25252525,%eax
    c941:	25 25 25 25 25       	and    $0x25252525,%eax
    c946:	25 25 25 25 25       	and    $0x25252525,%eax
    c94b:	25 25 25 25 25       	and    $0x25252525,%eax
    c950:	25 25 25 25 25       	and    $0x25252525,%eax
    c955:	25 25 25 25 25       	and    $0x25252525,%eax
    c95a:	25 25 25 25 25       	and    $0x25252525,%eax
    c95f:	25 25 25 25 25       	and    $0x25252525,%eax
    c964:	25 25 25 25 25       	and    $0x25252525,%eax
    c969:	25 25 25 25 25       	and    $0x25252525,%eax
    c96e:	25 25 25 25 25       	and    $0x25252525,%eax
    c973:	25 25 25 25 25       	and    $0x25252525,%eax
    c978:	25 25 25 25 25       	and    $0x25252525,%eax
    c97d:	25 25 25 25 25       	and    $0x25252525,%eax
    c982:	25 25 25 25 25       	and    $0x25252525,%eax
    c987:	25 25 25 25 25       	and    $0x25252525,%eax
    c98c:	25 25 25 25 25       	and    $0x25252525,%eax
    c991:	25 25 25 25 25       	and    $0x25252525,%eax
    c996:	25 25 25 25 25       	and    $0x25252525,%eax
    c99b:	25 25 25 25 25       	and    $0x25252525,%eax
    c9a0:	25 25 25 25 25       	and    $0x25252525,%eax
    c9a5:	25 25 25 25 25       	and    $0x25252525,%eax
    c9aa:	25 25 25 25 25       	and    $0x25252525,%eax
    c9af:	25 25 25 25 25       	and    $0x25252525,%eax
    c9b4:	25 25 25 25 25       	and    $0x25252525,%eax
    c9b9:	25 25 25 25 25       	and    $0x25252525,%eax
    c9be:	25 25 25 25 25       	and    $0x25252525,%eax
    c9c3:	25 25 25 25 25       	and    $0x25252525,%eax
    c9c8:	25 25 25 25 25       	and    $0x25252525,%eax
    c9cd:	25 25 25 25 25       	and    $0x25252525,%eax
    c9d2:	25 25 25 25 25       	and    $0x25252525,%eax
    c9d7:	25 25 25 25 25       	and    $0x25252525,%eax
    c9dc:	25 25 25 25 25       	and    $0x25252525,%eax
    c9e1:	25 25 25 25 25       	and    $0x25252525,%eax
    c9e6:	25 25 25 25 25       	and    $0x25252525,%eax
    c9eb:	25 25 25 25 25       	and    $0x25252525,%eax
    c9f0:	25 25 25 25 25       	and    $0x25252525,%eax
    c9f5:	25 25 25 25 25       	and    $0x25252525,%eax
    c9fa:	25 25 25 25 25       	and    $0x25252525,%eax
    c9ff:	25 25 25 25 25       	and    $0x25252525,%eax
    ca04:	25 25 25 25 25       	and    $0x25252525,%eax
    ca09:	25 25 25 25 25       	and    $0x25252525,%eax
    ca0e:	25 25 25 25 25       	and    $0x25252525,%eax
    ca13:	25 25 25 25 25       	and    $0x25252525,%eax
    ca18:	25 25 25 25 25       	and    $0x25252525,%eax
    ca1d:	25 25 25 25 25       	and    $0x25252525,%eax
    ca22:	25 25 25 25 25       	and    $0x25252525,%eax
    ca27:	25 25 25 25 25       	and    $0x25252525,%eax
    ca2c:	25 25 25 25 25       	and    $0x25252525,%eax
    ca31:	25 25 25 25 25       	and    $0x25252525,%eax
    ca36:	25 25 25 25 25       	and    $0x25252525,%eax
    ca3b:	25 25 25 25 25       	and    $0x25252525,%eax
    ca40:	25 25 25 25 25       	and    $0x25252525,%eax
    ca45:	25 25 25 25 25       	and    $0x25252525,%eax
    ca4a:	25 25 25 25 25       	and    $0x25252525,%eax
    ca4f:	25 25 25 25 25       	and    $0x25252525,%eax
    ca54:	25 25 25 25 25       	and    $0x25252525,%eax
    ca59:	25 25 25 25 25       	and    $0x25252525,%eax
    ca5e:	25 25 25 25 25       	and    $0x25252525,%eax
    ca63:	25 25 25 25 25       	and    $0x25252525,%eax
    ca68:	25 25 25 25 25       	and    $0x25252525,%eax
    ca6d:	25 25 25 25 25       	and    $0x25252525,%eax
    ca72:	25 25 25 25 25       	and    $0x25252525,%eax
    ca77:	25 25 25 25 25       	and    $0x25252525,%eax
    ca7c:	25 25 25 25 25       	and    $0x25252525,%eax
    ca81:	25 25 25 25 25       	and    $0x25252525,%eax
    ca86:	25 25 25 25 25       	and    $0x25252525,%eax
    ca8b:	25 25 25 25 25       	and    $0x25252525,%eax
    ca90:	25 25 25 25 25       	and    $0x25252525,%eax
    ca95:	25 25 25 25 25       	and    $0x25252525,%eax
    ca9a:	25 25 25 25 25       	and    $0x25252525,%eax
    ca9f:	25 25 25 25 25       	and    $0x25252525,%eax
    caa4:	25 25 25 25 25       	and    $0x25252525,%eax
    caa9:	25 25 25 25 25       	and    $0x25252525,%eax
    caae:	25 25 25 25 25       	and    $0x25252525,%eax
    cab3:	25 25 25 25 25       	and    $0x25252525,%eax
    cab8:	25 25 25 25 25       	and    $0x25252525,%eax
    cabd:	25 25 25 25 25       	and    $0x25252525,%eax
    cac2:	25 25 25 25 25       	and    $0x25252525,%eax
    cac7:	25 25 25 25 25       	and    $0x25252525,%eax
    cacc:	25 25 25 25 25       	and    $0x25252525,%eax
    cad1:	25 25 25 25 25       	and    $0x25252525,%eax
    cad6:	25 25 25 25 25       	and    $0x25252525,%eax
    cadb:	25 25 25 25 25       	and    $0x25252525,%eax
    cae0:	25 25 25 25 25       	and    $0x25252525,%eax
    cae5:	25 25 25 25 25       	and    $0x25252525,%eax
    caea:	25 25 25 25 25       	and    $0x25252525,%eax
    caef:	25 25 25 25 25       	and    $0x25252525,%eax
    caf4:	25 25 25 25 25       	and    $0x25252525,%eax
    caf9:	25 25 25 25 25       	and    $0x25252525,%eax
    cafe:	25 25 25 25 25       	and    $0x25252525,%eax
    cb03:	25 25 25 25 25       	and    $0x25252525,%eax
    cb08:	25 25 25 25 25       	and    $0x25252525,%eax
    cb0d:	25 25 25 25 25       	and    $0x25252525,%eax
    cb12:	25 25 25 25 25       	and    $0x25252525,%eax
    cb17:	25 25 25 25 25       	and    $0x25252525,%eax
    cb1c:	25 25 25 25 25       	and    $0x25252525,%eax
    cb21:	25 25 25 25 25       	and    $0x25252525,%eax
    cb26:	25 25 25 25 25       	and    $0x25252525,%eax
    cb2b:	25 25 25 25 25       	and    $0x25252525,%eax
    cb30:	25 25 25 25 25       	and    $0x25252525,%eax
    cb35:	25 25 25 25 25       	and    $0x25252525,%eax
    cb3a:	25 25 25 25 25       	and    $0x25252525,%eax
    cb3f:	25 25 25 25 25       	and    $0x25252525,%eax
    cb44:	25 25 25 25 25       	and    $0x25252525,%eax
    cb49:	25 25 25 25 25       	and    $0x25252525,%eax
    cb4e:	25 25 25 25 25       	and    $0x25252525,%eax
    cb53:	25 25 25 25 25       	and    $0x25252525,%eax
    cb58:	25 25 25 25 25       	and    $0x25252525,%eax
    cb5d:	25 25 25 25 25       	and    $0x25252525,%eax
    cb62:	25 25 25 25 25       	and    $0x25252525,%eax
    cb67:	25 25 25 25 25       	and    $0x25252525,%eax
    cb6c:	25 25 25 25 25       	and    $0x25252525,%eax
    cb71:	25 25 25 25 25       	and    $0x25252525,%eax
    cb76:	25 25 25 25 25       	and    $0x25252525,%eax
    cb7b:	25 25 25 25 25       	and    $0x25252525,%eax
    cb80:	25 25 25 25 25       	and    $0x25252525,%eax
    cb85:	25 25 25 25 25       	and    $0x25252525,%eax
    cb8a:	25 25 25 25 25       	and    $0x25252525,%eax
    cb8f:	25 25 25 25 25       	and    $0x25252525,%eax
    cb94:	25 25 25 25 25       	and    $0x25252525,%eax
    cb99:	25 25 25 25 25       	and    $0x25252525,%eax
    cb9e:	25 25 25 25 25       	and    $0x25252525,%eax
    cba3:	25 25 25 25 25       	and    $0x25252525,%eax
    cba8:	25 25 25 25 25       	and    $0x25252525,%eax
    cbad:	25 25 25 25 25       	and    $0x25252525,%eax
    cbb2:	25 25 25 25 25       	and    $0x25252525,%eax
    cbb7:	25 25 25 25 25       	and    $0x25252525,%eax
    cbbc:	25 25 25 25 25       	and    $0x25252525,%eax
    cbc1:	25 25 25 25 25       	and    $0x25252525,%eax
    cbc6:	25 25 25 25 25       	and    $0x25252525,%eax
    cbcb:	25 25 25 25 25       	and    $0x25252525,%eax
    cbd0:	25 25 25 25 25       	and    $0x25252525,%eax
    cbd5:	25 25 25 25 25       	and    $0x25252525,%eax
    cbda:	25 25 25 25 25       	and    $0x25252525,%eax
    cbdf:	25 25 25 25 25       	and    $0x25252525,%eax
    cbe4:	25 25 25 25 25       	and    $0x25252525,%eax
    cbe9:	25 25 25 25 25       	and    $0x25252525,%eax
    cbee:	25 25 25 25 25       	and    $0x25252525,%eax
    cbf3:	25 25 25 25 25       	and    $0x25252525,%eax
    cbf8:	25 25 25 25 25       	and    $0x25252525,%eax
    cbfd:	25 25 25 25 25       	and    $0x25252525,%eax
    cc02:	25 25 25 25 25       	and    $0x25252525,%eax
    cc07:	25 25 25 25 25       	and    $0x25252525,%eax
    cc0c:	25 25 25 25 25       	and    $0x25252525,%eax
    cc11:	25 25 25 25 25       	and    $0x25252525,%eax
    cc16:	25 25 25 25 25       	and    $0x25252525,%eax
    cc1b:	25 25 25 25 25       	and    $0x25252525,%eax
    cc20:	25 25 25 25 25       	and    $0x25252525,%eax
    cc25:	25 25 25 25 25       	and    $0x25252525,%eax
    cc2a:	25 25 25 25 25       	and    $0x25252525,%eax
    cc2f:	25 25 25 25 25       	and    $0x25252525,%eax
    cc34:	25 25 25 25 25       	and    $0x25252525,%eax
    cc39:	25 25 25 25 25       	and    $0x25252525,%eax
    cc3e:	25 25 25 25 25       	and    $0x25252525,%eax
    cc43:	25 25 25 25 25       	and    $0x25252525,%eax
    cc48:	25 25 25 25 25       	and    $0x25252525,%eax
    cc4d:	25 25 25 25 25       	and    $0x25252525,%eax
    cc52:	25 25 25 25 25       	and    $0x25252525,%eax
    cc57:	25 25 25 25 25       	and    $0x25252525,%eax
    cc5c:	25 25 25 25 25       	and    $0x25252525,%eax
    cc61:	25 25 25 25 25       	and    $0x25252525,%eax
    cc66:	25 25 25 25 25       	and    $0x25252525,%eax
    cc6b:	25 25 25 25 25       	and    $0x25252525,%eax
    cc70:	25 25 25 25 25       	and    $0x25252525,%eax
    cc75:	25 25 25 25 25       	and    $0x25252525,%eax
    cc7a:	25 25 25 25 25       	and    $0x25252525,%eax
    cc7f:	25 25 25 25 25       	and    $0x25252525,%eax
    cc84:	25 25 25 25 25       	and    $0x25252525,%eax
    cc89:	25 25 25 25 25       	and    $0x25252525,%eax
    cc8e:	25 25 25 25 25       	and    $0x25252525,%eax
    cc93:	25 25 25 25 25       	and    $0x25252525,%eax
    cc98:	25 25 25 25 25       	and    $0x25252525,%eax
    cc9d:	25 25 25 25 25       	and    $0x25252525,%eax
    cca2:	25 25 25 25 25       	and    $0x25252525,%eax
    cca7:	25 25 25 25 25       	and    $0x25252525,%eax
    ccac:	25 25 25 25 25       	and    $0x25252525,%eax
    ccb1:	25 25 25 25 25       	and    $0x25252525,%eax
    ccb6:	25 25 25 25 25       	and    $0x25252525,%eax
    ccbb:	25 25 25 25 25       	and    $0x25252525,%eax
    ccc0:	25 25 25 25 25       	and    $0x25252525,%eax
    ccc5:	25 25 25 25 25       	and    $0x25252525,%eax
    ccca:	25 25 25 25 25       	and    $0x25252525,%eax
    cccf:	25 25 25 25 25       	and    $0x25252525,%eax
    ccd4:	25 25 25 25 25       	and    $0x25252525,%eax
    ccd9:	25 25 25 25 25       	and    $0x25252525,%eax
    ccde:	25 25 25 25 25       	and    $0x25252525,%eax
    cce3:	25 25 25 25 25       	and    $0x25252525,%eax
    cce8:	25 25 25 25 25       	and    $0x25252525,%eax
    cced:	25 25 25 25 25       	and    $0x25252525,%eax
    ccf2:	25 25 25 25 25       	and    $0x25252525,%eax
    ccf7:	25 25 25 25 25       	and    $0x25252525,%eax
    ccfc:	25 25 25 25 25       	and    $0x25252525,%eax
    cd01:	25 25 25 25 25       	and    $0x25252525,%eax
    cd06:	25 25 25 25 25       	and    $0x25252525,%eax
    cd0b:	25 25 25 25 25       	and    $0x25252525,%eax
    cd10:	25 25 25 25 25       	and    $0x25252525,%eax
    cd15:	25 25 25 25 25       	and    $0x25252525,%eax
    cd1a:	25 25 25 25 25       	and    $0x25252525,%eax
    cd1f:	25 25 25 25 25       	and    $0x25252525,%eax
    cd24:	25 25 25 25 25       	and    $0x25252525,%eax
    cd29:	25 25 25 25 25       	and    $0x25252525,%eax
    cd2e:	25 25 25 25 25       	and    $0x25252525,%eax
    cd33:	25 25 25 25 25       	and    $0x25252525,%eax
    cd38:	25 25 25 25 25       	and    $0x25252525,%eax
    cd3d:	25 25 25 25 25       	and    $0x25252525,%eax
    cd42:	25 25 25 25 25       	and    $0x25252525,%eax
    cd47:	25 25 25 25 25       	and    $0x25252525,%eax
    cd4c:	25 25 25 25 25       	and    $0x25252525,%eax
    cd51:	25 25 25 25 25       	and    $0x25252525,%eax
    cd56:	25 25 25 25 25       	and    $0x25252525,%eax
    cd5b:	25 25 25 25 25       	and    $0x25252525,%eax
    cd60:	25 25 25 25 25       	and    $0x25252525,%eax
    cd65:	25 25 25 25 25       	and    $0x25252525,%eax
    cd6a:	25 25 25 25 25       	and    $0x25252525,%eax
    cd6f:	25 25 25 25 25       	and    $0x25252525,%eax
    cd74:	25 25 25 25 25       	and    $0x25252525,%eax
    cd79:	25 25 25 25 25       	and    $0x25252525,%eax
    cd7e:	25 25 25 25 25       	and    $0x25252525,%eax
    cd83:	25 25 25 25 25       	and    $0x25252525,%eax
    cd88:	25 25 25 25 25       	and    $0x25252525,%eax
    cd8d:	25 25 25 25 25       	and    $0x25252525,%eax
    cd92:	25 25 25 25 25       	and    $0x25252525,%eax
    cd97:	25 25 25 25 25       	and    $0x25252525,%eax
    cd9c:	25 25 25 25 25       	and    $0x25252525,%eax
    cda1:	25 25 25 25 25       	and    $0x25252525,%eax
    cda6:	25 25 25 25 25       	and    $0x25252525,%eax
    cdab:	25 25 25 25 25       	and    $0x25252525,%eax
    cdb0:	25 25 25 25 25       	and    $0x25252525,%eax
    cdb5:	25 25 25 25 25       	and    $0x25252525,%eax
    cdba:	25 25 25 25 25       	and    $0x25252525,%eax
    cdbf:	25 25 25 25 25       	and    $0x25252525,%eax
    cdc4:	25 25 25 25 25       	and    $0x25252525,%eax
    cdc9:	25 25 25 25 25       	and    $0x25252525,%eax
    cdce:	25 25 25 25 25       	and    $0x25252525,%eax
    cdd3:	25 25 25 25 25       	and    $0x25252525,%eax
    cdd8:	25 25 25 25 25       	and    $0x25252525,%eax
    cddd:	25 25 25 25 25       	and    $0x25252525,%eax
    cde2:	25 25 25 25 25       	and    $0x25252525,%eax
    cde7:	25 25 25 25 25       	and    $0x25252525,%eax
    cdec:	25 25 25 25 25       	and    $0x25252525,%eax
    cdf1:	25 25 25 25 25       	and    $0x25252525,%eax
    cdf6:	25 25 25 25 25       	and    $0x25252525,%eax
    cdfb:	25 25 25 25 25       	and    $0x25252525,%eax
    ce00:	25 25 25 25 25       	and    $0x25252525,%eax
    ce05:	25 25 25 25 25       	and    $0x25252525,%eax
    ce0a:	25 25 25 25 25       	and    $0x25252525,%eax
    ce0f:	25 25 25 25 25       	and    $0x25252525,%eax
    ce14:	25 25 25 25 25       	and    $0x25252525,%eax
    ce19:	25 25 25 25 25       	and    $0x25252525,%eax
    ce1e:	25 25 25 25 25       	and    $0x25252525,%eax
    ce23:	25 25 25 25 25       	and    $0x25252525,%eax
    ce28:	25 25 25 25 25       	and    $0x25252525,%eax
    ce2d:	25 25 25 25 25       	and    $0x25252525,%eax
    ce32:	25 25 25 25 25       	and    $0x25252525,%eax
    ce37:	25 25 25 25 25       	and    $0x25252525,%eax
    ce3c:	25 25 25 25 25       	and    $0x25252525,%eax
    ce41:	25 25 25 25 25       	and    $0x25252525,%eax
    ce46:	25 25 25 25 25       	and    $0x25252525,%eax
    ce4b:	25 25 25 25 25       	and    $0x25252525,%eax
    ce50:	25 25 25 25 25       	and    $0x25252525,%eax
    ce55:	25 25 25 25 25       	and    $0x25252525,%eax
    ce5a:	25 25 25 25 25       	and    $0x25252525,%eax
    ce5f:	25 25 25 25 25       	and    $0x25252525,%eax
    ce64:	25 25 25 25 25       	and    $0x25252525,%eax
    ce69:	25 25 25 25 25       	and    $0x25252525,%eax
    ce6e:	25 25 25 25 25       	and    $0x25252525,%eax
    ce73:	25 25 25 25 25       	and    $0x25252525,%eax
    ce78:	25 25 25 25 25       	and    $0x25252525,%eax
    ce7d:	25 25 25 25 25       	and    $0x25252525,%eax
    ce82:	25 25 25 25 25       	and    $0x25252525,%eax
    ce87:	25 25 25 25 25       	and    $0x25252525,%eax
    ce8c:	25 25 25 25 25       	and    $0x25252525,%eax
    ce91:	25 25 25 25 25       	and    $0x25252525,%eax
    ce96:	25 25 25 25 25       	and    $0x25252525,%eax
    ce9b:	25 25 25 25 25       	and    $0x25252525,%eax
    cea0:	25 25 25 25 25       	and    $0x25252525,%eax
    cea5:	25 25 25 25 25       	and    $0x25252525,%eax
    ceaa:	25 25 25 25 25       	and    $0x25252525,%eax
    ceaf:	25 25 25 25 25       	and    $0x25252525,%eax
    ceb4:	25 25 25 25 25       	and    $0x25252525,%eax
    ceb9:	25 25 25 25 25       	and    $0x25252525,%eax
    cebe:	25 25 25 25 25       	and    $0x25252525,%eax
    cec3:	25 25 25 25 25       	and    $0x25252525,%eax
    cec8:	25 25 25 25 25       	and    $0x25252525,%eax
    cecd:	25 25 25 25 25       	and    $0x25252525,%eax
    ced2:	25 25 25 25 25       	and    $0x25252525,%eax
    ced7:	25 25 25 25 25       	and    $0x25252525,%eax
    cedc:	25 25 25 25 25       	and    $0x25252525,%eax
    cee1:	25 25 25 25 25       	and    $0x25252525,%eax
    cee6:	25 25 25 25 25       	and    $0x25252525,%eax
    ceeb:	25 25 25 25 25       	and    $0x25252525,%eax
    cef0:	25 25 25 25 25       	and    $0x25252525,%eax
    cef5:	25 25 25 25 25       	and    $0x25252525,%eax
    cefa:	25 25 25 25 25       	and    $0x25252525,%eax
    ceff:	25 25 25 25 25       	and    $0x25252525,%eax
    cf04:	25 25 25 25 25       	and    $0x25252525,%eax
    cf09:	25 25 25 25 25       	and    $0x25252525,%eax
    cf0e:	25 25 25 25 25       	and    $0x25252525,%eax
    cf13:	25 25 25 25 25       	and    $0x25252525,%eax
    cf18:	25 25 25 25 25       	and    $0x25252525,%eax
    cf1d:	25 25 25 25 25       	and    $0x25252525,%eax
    cf22:	25 25 25 25 25       	and    $0x25252525,%eax
    cf27:	25 25 25 25 25       	and    $0x25252525,%eax
    cf2c:	25 25 25 25 25       	and    $0x25252525,%eax
    cf31:	25 25 25 25 25       	and    $0x25252525,%eax
    cf36:	25 25 25 25 25       	and    $0x25252525,%eax
    cf3b:	25 25 25 25 25       	and    $0x25252525,%eax
    cf40:	25 25 25 25 25       	and    $0x25252525,%eax
    cf45:	25 25 25 25 25       	and    $0x25252525,%eax
    cf4a:	25 25 25 25 25       	and    $0x25252525,%eax
    cf4f:	25 25 25 25 25       	and    $0x25252525,%eax
    cf54:	25 25 25 25 25       	and    $0x25252525,%eax
    cf59:	25 25 25 25 25       	and    $0x25252525,%eax
    cf5e:	25 25 25 25 25       	and    $0x25252525,%eax
    cf63:	25 25 25 25 25       	and    $0x25252525,%eax
    cf68:	25 25 25 25 25       	and    $0x25252525,%eax
    cf6d:	25 25 25 25 25       	and    $0x25252525,%eax
    cf72:	25 25 25 25 25       	and    $0x25252525,%eax
    cf77:	25 25 25 25 25       	and    $0x25252525,%eax
    cf7c:	25 25 25 25 25       	and    $0x25252525,%eax
    cf81:	25 25 25 25 25       	and    $0x25252525,%eax
    cf86:	25 25 25 25 25       	and    $0x25252525,%eax
    cf8b:	25 25 25 25 25       	and    $0x25252525,%eax
    cf90:	25 25 25 25 25       	and    $0x25252525,%eax
    cf95:	25 25 25 25 25       	and    $0x25252525,%eax
    cf9a:	25 25 25 25 25       	and    $0x25252525,%eax
    cf9f:	25 25 25 25 25       	and    $0x25252525,%eax
    cfa4:	25 25 25 25 25       	and    $0x25252525,%eax
    cfa9:	25 25 25 25 25       	and    $0x25252525,%eax
    cfae:	25 25 25 25 25       	and    $0x25252525,%eax
    cfb3:	25 25 25 25 25       	and    $0x25252525,%eax
    cfb8:	25 25 25 25 25       	and    $0x25252525,%eax
    cfbd:	25 25 25 25 25       	and    $0x25252525,%eax
    cfc2:	25 25 25 25 25       	and    $0x25252525,%eax
    cfc7:	25 25 25 25 25       	and    $0x25252525,%eax
    cfcc:	25 25 25 25 25       	and    $0x25252525,%eax
    cfd1:	25 25 25 25 25       	and    $0x25252525,%eax
    cfd6:	25 25 25 25 25       	and    $0x25252525,%eax
    cfdb:	25 25 25 25 25       	and    $0x25252525,%eax
    cfe0:	25 25 25 25 25       	and    $0x25252525,%eax
    cfe5:	25 25 25 25 25       	and    $0x25252525,%eax
    cfea:	25 25 25 25 25       	and    $0x25252525,%eax
    cfef:	25 25 25 25 25       	and    $0x25252525,%eax
    cff4:	25 25 25 25 25       	and    $0x25252525,%eax
    cff9:	25 25 25 25 25       	and    $0x25252525,%eax
    cffe:	25 25 25 25 25       	and    $0x25252525,%eax
    d003:	25 25 25 25 25       	and    $0x25252525,%eax
    d008:	25 25 25 25 25       	and    $0x25252525,%eax
    d00d:	25 25 25 25 25       	and    $0x25252525,%eax
    d012:	25 25 25 25 25       	and    $0x25252525,%eax
    d017:	25 25 25 25 25       	and    $0x25252525,%eax
    d01c:	25 25 25 25 25       	and    $0x25252525,%eax
    d021:	25 25 25 25 25       	and    $0x25252525,%eax
    d026:	25 25 25 25 25       	and    $0x25252525,%eax
    d02b:	25 25 25 25 25       	and    $0x25252525,%eax
    d030:	25 25 25 25 25       	and    $0x25252525,%eax
    d035:	25 25 25 25 25       	and    $0x25252525,%eax
    d03a:	25 25 25 25 25       	and    $0x25252525,%eax
    d03f:	25 25 25 25 25       	and    $0x25252525,%eax
    d044:	25 25 25 25 25       	and    $0x25252525,%eax
    d049:	25 25 25 25 25       	and    $0x25252525,%eax
    d04e:	25 25 25 25 25       	and    $0x25252525,%eax
    d053:	25 25 25 25 25       	and    $0x25252525,%eax
    d058:	25 25 25 25 25       	and    $0x25252525,%eax
    d05d:	25 25 25 25 25       	and    $0x25252525,%eax
    d062:	25 25 25 25 25       	and    $0x25252525,%eax
    d067:	25 25 25 25 25       	and    $0x25252525,%eax
    d06c:	25 25 25 25 25       	and    $0x25252525,%eax
    d071:	25 25 25 25 25       	and    $0x25252525,%eax
    d076:	25 25 25 25 25       	and    $0x25252525,%eax
    d07b:	25 25 25 25 25       	and    $0x25252525,%eax
    d080:	25 25 25 25 25       	and    $0x25252525,%eax
    d085:	25 25 25 25 25       	and    $0x25252525,%eax
    d08a:	25 25 25 25 25       	and    $0x25252525,%eax
    d08f:	25 25 25 25 25       	and    $0x25252525,%eax
    d094:	25 25 25 25 25       	and    $0x25252525,%eax
    d099:	25 25 25 25 25       	and    $0x25252525,%eax
    d09e:	25 25 25 25 25       	and    $0x25252525,%eax
    d0a3:	25 25 25 25 25       	and    $0x25252525,%eax
    d0a8:	25 25 25 25 25       	and    $0x25252525,%eax
    d0ad:	25 25 25 25 25       	and    $0x25252525,%eax
    d0b2:	25 25 25 25 25       	and    $0x25252525,%eax
    d0b7:	25 25 25 25 25       	and    $0x25252525,%eax
    d0bc:	25 25 25 25 25       	and    $0x25252525,%eax
    d0c1:	25 25 25 25 25       	and    $0x25252525,%eax
    d0c6:	25 25 25 25 25       	and    $0x25252525,%eax
    d0cb:	25 25 25 25 25       	and    $0x25252525,%eax
    d0d0:	25 25 25 25 25       	and    $0x25252525,%eax
    d0d5:	25 25 25 25 25       	and    $0x25252525,%eax
    d0da:	25 25 25 25 25       	and    $0x25252525,%eax
    d0df:	25 25 25 25 25       	and    $0x25252525,%eax
    d0e4:	25 25 25 25 25       	and    $0x25252525,%eax
    d0e9:	25 25 25 25 25       	and    $0x25252525,%eax
    d0ee:	25 25 25 25 25       	and    $0x25252525,%eax
    d0f3:	25 25 25 25 25       	and    $0x25252525,%eax
    d0f8:	25 25 25 25 25       	and    $0x25252525,%eax
    d0fd:	25 25 25 25 25       	and    $0x25252525,%eax
    d102:	25 25 25 25 25       	and    $0x25252525,%eax
    d107:	25 25 25 25 25       	and    $0x25252525,%eax
    d10c:	25 25 25 25 25       	and    $0x25252525,%eax
    d111:	25 25 25 25 25       	and    $0x25252525,%eax
    d116:	25 25 25 25 25       	and    $0x25252525,%eax
    d11b:	25 25 25 25 25       	and    $0x25252525,%eax
    d120:	25 25 25 25 25       	and    $0x25252525,%eax
    d125:	25 25 25 25 25       	and    $0x25252525,%eax
    d12a:	25 25 25 25 25       	and    $0x25252525,%eax
    d12f:	25 25 25 25 25       	and    $0x25252525,%eax
    d134:	25 25 25 25 25       	and    $0x25252525,%eax
    d139:	25 25 25 25 25       	and    $0x25252525,%eax
    d13e:	25 25 25 25 25       	and    $0x25252525,%eax
    d143:	25 25 25 25 25       	and    $0x25252525,%eax
    d148:	25 25 25 25 25       	and    $0x25252525,%eax
    d14d:	25 25 25 25 25       	and    $0x25252525,%eax
    d152:	25 25 25 25 25       	and    $0x25252525,%eax
    d157:	25 25 25 25 25       	and    $0x25252525,%eax
    d15c:	25 25 25 25 25       	and    $0x25252525,%eax
    d161:	25 25 25 25 25       	and    $0x25252525,%eax
    d166:	25 25 25 25 25       	and    $0x25252525,%eax
    d16b:	25 25 25 25 25       	and    $0x25252525,%eax
    d170:	25 25 25 25 25       	and    $0x25252525,%eax
    d175:	25 25 25 25 25       	and    $0x25252525,%eax
    d17a:	25 25 25 25 25       	and    $0x25252525,%eax
    d17f:	25 25 25 25 25       	and    $0x25252525,%eax
    d184:	25 25 25 25 25       	and    $0x25252525,%eax
    d189:	25 25 25 25 25       	and    $0x25252525,%eax
    d18e:	25 25 25 25 25       	and    $0x25252525,%eax
    d193:	25 25 25 25 25       	and    $0x25252525,%eax
    d198:	25 25 25 25 25       	and    $0x25252525,%eax
    d19d:	25 25 25 25 25       	and    $0x25252525,%eax
    d1a2:	25 25 25 25 25       	and    $0x25252525,%eax
    d1a7:	25 25 25 25 25       	and    $0x25252525,%eax
    d1ac:	25 25 25 25 25       	and    $0x25252525,%eax
    d1b1:	25 25 25 25 25       	and    $0x25252525,%eax
    d1b6:	25 25 25 25 25       	and    $0x25252525,%eax
    d1bb:	25 25 25 25 25       	and    $0x25252525,%eax
    d1c0:	25 25 25 25 25       	and    $0x25252525,%eax
    d1c5:	25 25 25 25 25       	and    $0x25252525,%eax
    d1ca:	25 25 25 25 25       	and    $0x25252525,%eax
    d1cf:	25 25 25 25 25       	and    $0x25252525,%eax
    d1d4:	25 25 25 25 25       	and    $0x25252525,%eax
    d1d9:	25 25 25 25 25       	and    $0x25252525,%eax
    d1de:	25 25 25 25 25       	and    $0x25252525,%eax
    d1e3:	25 25 25 25 25       	and    $0x25252525,%eax
    d1e8:	25 25 25 25 25       	and    $0x25252525,%eax
    d1ed:	25 25 25 25 25       	and    $0x25252525,%eax
    d1f2:	25 25 25 25 25       	and    $0x25252525,%eax
    d1f7:	25 25 25 25 25       	and    $0x25252525,%eax
    d1fc:	25 25 25 25 25       	and    $0x25252525,%eax
    d201:	25 25 25 25 25       	and    $0x25252525,%eax
    d206:	25 25 25 25 25       	and    $0x25252525,%eax
    d20b:	25 25 25 25 25       	and    $0x25252525,%eax
    d210:	25 25 25 25 25       	and    $0x25252525,%eax
    d215:	25 25 25 25 25       	and    $0x25252525,%eax
    d21a:	25 25 25 25 25       	and    $0x25252525,%eax
    d21f:	25 25 25 25 25       	and    $0x25252525,%eax
    d224:	25 25 25 25 25       	and    $0x25252525,%eax
    d229:	25 25 25 25 25       	and    $0x25252525,%eax
    d22e:	25 25 25 25 25       	and    $0x25252525,%eax
    d233:	25 25 25 25 25       	and    $0x25252525,%eax
    d238:	25 25 25 25 25       	and    $0x25252525,%eax
    d23d:	25 25 25 25 25       	and    $0x25252525,%eax
    d242:	25 25 25 25 25       	and    $0x25252525,%eax
    d247:	25 25 25 25 25       	and    $0x25252525,%eax
    d24c:	25 25 25 25 25       	and    $0x25252525,%eax
    d251:	25 25 25 25 25       	and    $0x25252525,%eax
    d256:	25 25 25 25 25       	and    $0x25252525,%eax
    d25b:	25 25 25 25 25       	and    $0x25252525,%eax
    d260:	25 25 25 25 25       	and    $0x25252525,%eax
    d265:	25 25 25 25 25       	and    $0x25252525,%eax
    d26a:	25 25 25 25 25       	and    $0x25252525,%eax
    d26f:	25 25 25 25 25       	and    $0x25252525,%eax
    d274:	25 25 25 25 25       	and    $0x25252525,%eax
    d279:	25 25 25 25 25       	and    $0x25252525,%eax
    d27e:	25 25 25 25 25       	and    $0x25252525,%eax
    d283:	25 25 25 25 25       	and    $0x25252525,%eax
    d288:	25 25 25 25 25       	and    $0x25252525,%eax
    d28d:	25 25 25 25 25       	and    $0x25252525,%eax
    d292:	25 25 25 25 25       	and    $0x25252525,%eax
    d297:	25 25 25 25 25       	and    $0x25252525,%eax
    d29c:	25 25 25 25 25       	and    $0x25252525,%eax
    d2a1:	25 25 25 25 25       	and    $0x25252525,%eax
    d2a6:	25 25 25 25 25       	and    $0x25252525,%eax
    d2ab:	25 25 25 25 25       	and    $0x25252525,%eax
    d2b0:	25 25 25 25 25       	and    $0x25252525,%eax
    d2b5:	25 25 25 25 25       	and    $0x25252525,%eax
    d2ba:	25 25 25 25 25       	and    $0x25252525,%eax
    d2bf:	25 25 25 25 25       	and    $0x25252525,%eax
    d2c4:	25 25 25 25 25       	and    $0x25252525,%eax
    d2c9:	25 25 25 25 25       	and    $0x25252525,%eax
    d2ce:	25 25 25 25 25       	and    $0x25252525,%eax
    d2d3:	25 25 25 25 25       	and    $0x25252525,%eax
    d2d8:	25 25 25 25 25       	and    $0x25252525,%eax
    d2dd:	25 25 25 25 25       	and    $0x25252525,%eax
    d2e2:	25 25 25 25 25       	and    $0x25252525,%eax
    d2e7:	25 25 25 25 25       	and    $0x25252525,%eax
    d2ec:	25 25 25 25 25       	and    $0x25252525,%eax
    d2f1:	25 25 25 25 25       	and    $0x25252525,%eax
    d2f6:	25 25 25 25 25       	and    $0x25252525,%eax
    d2fb:	25 25 25 25 25       	and    $0x25252525,%eax
    d300:	25 25 25 25 25       	and    $0x25252525,%eax
    d305:	25 25 25 25 25       	and    $0x25252525,%eax
    d30a:	25 25 25 25 25       	and    $0x25252525,%eax
    d30f:	25 25 25 25 25       	and    $0x25252525,%eax
    d314:	25 25 25 25 25       	and    $0x25252525,%eax
    d319:	25 25 25 25 25       	and    $0x25252525,%eax
    d31e:	25 25 25 25 25       	and    $0x25252525,%eax
    d323:	25 25 25 25 25       	and    $0x25252525,%eax
    d328:	25 25 25 25 25       	and    $0x25252525,%eax
    d32d:	25 25 25 25 25       	and    $0x25252525,%eax
    d332:	25 25 25 25 25       	and    $0x25252525,%eax
    d337:	25 25 25 25 25       	and    $0x25252525,%eax
    d33c:	25 25 25 25 25       	and    $0x25252525,%eax
    d341:	25 25 25 25 25       	and    $0x25252525,%eax
    d346:	25 25 25 25 25       	and    $0x25252525,%eax
    d34b:	25 25 25 25 25       	and    $0x25252525,%eax
    d350:	25 25 25 25 25       	and    $0x25252525,%eax
    d355:	25 25 25 25 25       	and    $0x25252525,%eax
    d35a:	25 25 25 25 25       	and    $0x25252525,%eax
    d35f:	25 25 25 25 25       	and    $0x25252525,%eax
    d364:	25 25 25 25 25       	and    $0x25252525,%eax
    d369:	25 25 25 25 25       	and    $0x25252525,%eax
    d36e:	25 25 25 25 25       	and    $0x25252525,%eax
    d373:	25 25 25 25 25       	and    $0x25252525,%eax
    d378:	25 25 25 25 25       	and    $0x25252525,%eax
    d37d:	25 25 25 25 25       	and    $0x25252525,%eax
    d382:	25 25 25 25 25       	and    $0x25252525,%eax
    d387:	25 25 25 25 25       	and    $0x25252525,%eax
    d38c:	25 25 25 25 25       	and    $0x25252525,%eax
    d391:	25 25 25 25 25       	and    $0x25252525,%eax
    d396:	25 25 25 25 25       	and    $0x25252525,%eax
    d39b:	25 25 25 25 25       	and    $0x25252525,%eax
    d3a0:	25 25 25 25 25       	and    $0x25252525,%eax
    d3a5:	25 25 25 25 25       	and    $0x25252525,%eax
    d3aa:	25 25 25 25 25       	and    $0x25252525,%eax
    d3af:	25 25 25 25 25       	and    $0x25252525,%eax
    d3b4:	25 25 25 25 25       	and    $0x25252525,%eax
    d3b9:	25 25 25 25 25       	and    $0x25252525,%eax
    d3be:	25 25 25 25 25       	and    $0x25252525,%eax
    d3c3:	25 25 25 25 25       	and    $0x25252525,%eax
    d3c8:	25 25 25 25 25       	and    $0x25252525,%eax
    d3cd:	25 25 25 25 25       	and    $0x25252525,%eax
    d3d2:	25 25 25 25 25       	and    $0x25252525,%eax
    d3d7:	25 25 25 25 25       	and    $0x25252525,%eax
    d3dc:	25 25 25 25 25       	and    $0x25252525,%eax
    d3e1:	25 25 25 25 25       	and    $0x25252525,%eax
    d3e6:	25 25 25 25 25       	and    $0x25252525,%eax
    d3eb:	25 25 25 25 25       	and    $0x25252525,%eax
    d3f0:	25 25 25 25 25       	and    $0x25252525,%eax
    d3f5:	25 25 25 25 25       	and    $0x25252525,%eax
    d3fa:	25 25 25 25 25       	and    $0x25252525,%eax
    d3ff:	25 25 25 25 25       	and    $0x25252525,%eax
    d404:	25 25 25 25 25       	and    $0x25252525,%eax
    d409:	25 25 25 25 25       	and    $0x25252525,%eax
    d40e:	25 25 25 25 25       	and    $0x25252525,%eax
    d413:	25 25 25 25 25       	and    $0x25252525,%eax
    d418:	25 25 25 25 25       	and    $0x25252525,%eax
    d41d:	25 25 25 25 25       	and    $0x25252525,%eax
    d422:	25 25 25 25 25       	and    $0x25252525,%eax
    d427:	25 25 25 25 25       	and    $0x25252525,%eax
